   1               		.file	"main.c"
   2               	__SREG__ = 0x3f
   3               	__SP_H__ = 0x3e
   4               	__SP_L__ = 0x3d
   5               	__CCP__  = 0x34
   6               	__tmp_reg__ = 0
   7               	__zero_reg__ = 1
  15               	.Ltext0:
  16               	.global	__vector_18
  18               	__vector_18:
  19               	.LFB4:
  20               	.LM1:
  21 0000 1F92      		push __zero_reg__
  22 0002 0F92      		push r0
  23 0004 0FB6      		in r0,__SREG__
  24 0006 0F92      		push r0
  25 0008 1124      		clr __zero_reg__
  26 000a 2F93      		push r18
  27 000c 8F93      		push r24
  28 000e 9F93      		push r25
  29 0010 EF93      		push r30
  30 0012 FF93      		push r31
  31               	/* prologue: Signal */
  32               	/* frame size = 0 */
  33               	.LM2:
  34               	/* #APP */
  35               	 ;  203 "main.c" 1
  36 0014 F894      		cli
  37               	 ;  0 "" 2
  38               	.LM3:
  39               	/* #NOAPP */
  40 0016 E091 0000 		lds r30,RX_in
  41 001a F091 0000 		lds r31,(RX_in)+1
  42 001e 8091 C600 		lds r24,198
  43 0022 E050      		subi r30,lo8(-(RX_array))
  44 0024 F040      		sbci r31,hi8(-(RX_array))
  45 0026 8083      		st Z,r24
  46               	.LM4:
  47 0028 8091 0000 		lds r24,RX_in
  48 002c 9091 0000 		lds r25,(RX_in)+1
  49 0030 0196      		adiw r24,1
  50 0032 9093 0000 		sts (RX_in)+1,r25
  51 0036 8093 0000 		sts RX_in,r24
  52               	.LM5:
  53 003a 8091 0000 		lds r24,RX_in
  54 003e 9091 0000 		lds r25,(RX_in)+1
  55 0042 805A      		subi r24,lo8(416)
  56 0044 9140      		sbci r25,hi8(416)
  57 0046 00F0      		brlo .L2
  58 0048 1092 0000 		sts (RX_in)+1,__zero_reg__
  59 004c 1092 0000 		sts RX_in,__zero_reg__
  60               	.L2:
  61               	.LM6:
  62               	/* #APP */
  63               	 ;  210 "main.c" 1
  64 0050 7894      		sei
  65               	 ;  0 "" 2
  66               	/* epilogue start */
  67               	.LM7:
  68               	/* #NOAPP */
  69 0052 FF91      		pop r31
  70 0054 EF91      		pop r30
  71 0056 9F91      		pop r25
  72 0058 8F91      		pop r24
  73 005a 2F91      		pop r18
  74 005c 0F90      		pop r0
  75 005e 0FBE      		out __SREG__,r0
  76 0060 0F90      		pop r0
  77 0062 1F90      		pop __zero_reg__
  78 0064 1895      		reti
  79               	.LFE4:
  81               	.global	__vector_14
  83               	__vector_14:
  84               	.LFB5:
  85               	.LM8:
  86 0066 1F92      		push __zero_reg__
  87 0068 0F92      		push r0
  88 006a 0FB6      		in r0,__SREG__
  89 006c 0F92      		push r0
  90 006e 1124      		clr __zero_reg__
  91 0070 8F93      		push r24
  92 0072 9F93      		push r25
  93               	/* prologue: Signal */
  94               	/* frame size = 0 */
  95               	.LM9:
  96 0074 15BC      		out 69-32,__zero_reg__
  97               	.LM10:
  98 0076 1092 6E00 		sts 110,__zero_reg__
  99               	.LM11:
 100 007a 82E0      		ldi r24,lo8(2)
 101 007c 85BB      		out 53-32,r24
 102               	.LM12:
 103 007e 16BC      		out 70-32,__zero_reg__
 104               	.LM13:
 105 0080 1A99      		sbic 35-32,2
 106 0082 00C0      		rjmp .L9
 107               	.LM14:
 108 0084 2A9A      		sbi 37-32,2
 109               	.LM15:
 110 0086 84E6      		ldi r24,lo8(100)
 111 0088 9091 0000 		lds r25,BL_dutycycle
 112 008c 891B      		sub r24,r25
 113 008e 87BD      		out 71-32,r24
 114               	.L7:
 115               	.LM16:
 116 0090 82E0      		ldi r24,lo8(2)
 117 0092 8093 6E00 		sts 110,r24
 118               	.LM17:
 119 0096 85BD      		out 69-32,r24
 120               	/* epilogue start */
 121               	.LM18:
 122 0098 9F91      		pop r25
 123 009a 8F91      		pop r24
 124 009c 0F90      		pop r0
 125 009e 0FBE      		out __SREG__,r0
 126 00a0 0F90      		pop r0
 127 00a2 1F90      		pop __zero_reg__
 128 00a4 1895      		reti
 129               	.L9:
 130               	.LM19:
 131 00a6 2A98      		cbi 37-32,2
 132               	.LM20:
 133 00a8 8091 0000 		lds r24,BL_dutycycle
 134 00ac 87BD      		out 71-32,r24
 135 00ae 00C0      		rjmp .L7
 136               	.LFE5:
 138               	.global	ioinit
 140               	ioinit:
 141               	.LFB7:
 142               	.LM21:
 143               	/* prologue: function */
 144               	/* frame size = 0 */
 145               	.LM22:
 146 00b0 83E0      		ldi r24,lo8(3)
 147 00b2 84B9      		out 36-32,r24
 148               	.LM23:
 149 00b4 8CEF      		ldi r24,lo8(-4)
 150 00b6 8AB9      		out 42-32,r24
 151               	.LM24:
 152 00b8 2A9A      		sbi 37-32,2
 153               	.LM25:
 154 00ba 229A      		sbi 36-32,2
 155               	.LM26:
 156 00bc 8091 0000 		lds r24,display
 157 00c0 8823      		tst r24
 158 00c2 01F0      		breq .L14
 159               	.LM27:
 160 00c4 8130      		cpi r24,lo8(1)
 161 00c6 01F0      		breq .L15
 162               	.L12:
 163               	.LM28:
 164 00c8 82E0      		ldi r24,lo8(2)
 165 00ca 8093 B100 		sts 177,r24
 166               	.LM29:
 167 00ce 84BD      		out 68-32,r24
 168               	.LM30:
 169 00d0 8093 6E00 		sts 110,r24
 170               	.LM31:
 171 00d4 8091 0000 		lds r24,BL_dutycycle
 172 00d8 87BD      		out 71-32,r24
 173               	/* epilogue start */
 174               	.LM32:
 175 00da 0895      		ret
 176               	.L14:
 177               	.LM33:
 178 00dc 8FE3      		ldi r24,lo8(63)
 179 00de 87B9      		out 39-32,r24
 180               	.LM34:
 181 00e0 88B9      		out 40-32,r24
 182 00e2 00C0      		rjmp .L12
 183               	.L15:
 184               	.LM35:
 185 00e4 8FE3      		ldi r24,lo8(63)
 186 00e6 88B9      		out 40-32,r24
 187               	.LM36:
 188 00e8 87B9      		out 39-32,r24
 189 00ea 00C0      		rjmp .L12
 190               	.LFE7:
 192               	.global	delay_us
 194               	delay_us:
 195               	.LFB9:
 196               	.LM37:
 197               	.LVL0:
 198               	/* prologue: function */
 199               	/* frame size = 0 */
 200               	.LM38:
 201 00ec 8823      		tst r24
 202 00ee 01F4      		brne .L17
 203 00f0 9FEF      		ldi r25,lo8(-1)
 204               	.L18:
 205               	.LM39:
 206 00f2 B89A      		sbi 55-32,0
 207               	.LM40:
 208 00f4 9093 B200 		sts 178,r25
 209               	.L19:
 210               	.LM41:
 211 00f8 B89B      		sbis 55-32,0
 212 00fa 00C0      		rjmp .L19
 213               	.LM42:
 214 00fc 8823      		tst r24
 215 00fe 01F0      		breq .L22
 216               	.LM43:
 217 0100 B89A      		sbi 55-32,0
 218               	.LM44:
 219 0102 9093 B200 		sts 178,r25
 220               	.L21:
 221               	.LM45:
 222 0106 B89B      		sbis 55-32,0
 223 0108 00C0      		rjmp .L21
 224               	.L22:
 225 010a 0895      		ret
 226               	.L17:
 227               	.LM46:
 228 010c 982F      		mov r25,r24
 229 010e 9195      		neg r25
 230 0110 00C0      		rjmp .L18
 231               	.LFE9:
 233               	.global	delay_ms
 235               	delay_ms:
 236               	.LFB8:
 237               	.LM47:
 238               	.LVL1:
 239 0112 CF93      		push r28
 240 0114 DF93      		push r29
 241               	/* prologue: function */
 242               	/* frame size = 0 */
 243 0116 EC01      		movw r28,r24
 244               	.LM48:
 245 0118 0097      		sbiw r24,0
 246 011a 01F0      		breq .L28
 247               	.L29:
 248               	.LM49:
 249 011c 8AEF      		ldi r24,lo8(-6)
 250               	.LVL2:
 251 011e 0E94 0000 		call delay_us
 252               	.LM50:
 253 0122 8AEF      		ldi r24,lo8(-6)
 254 0124 0E94 0000 		call delay_us
 255               	.LM51:
 256 0128 8AEF      		ldi r24,lo8(-6)
 257 012a 0E94 0000 		call delay_us
 258               	.LM52:
 259 012e 8AEF      		ldi r24,lo8(-6)
 260 0130 0E94 0000 		call delay_us
 261               	.LM53:
 262 0134 2197      		sbiw r28,1
 263 0136 01F4      		brne .L29
 264               	.LVL3:
 265               	.L28:
 266               	/* epilogue start */
 267               	.LM54:
 268 0138 DF91      		pop r29
 269 013a CF91      		pop r28
 270               	.LVL4:
 271 013c 0895      		ret
 272               	.LFE8:
 274               	.global	USART_Init
 276               	USART_Init:
 277               	.LFB10:
 278               	.LM55:
 279               	.LVL5:
 280               	/* prologue: function */
 281               	/* frame size = 0 */
 282               	.LM56:
 283 013e 9093 C500 		sts 197,r25
 284               	.LVL6:
 285               	.LM57:
 286 0142 8093 C400 		sts 196,r24
 287               	.LM58:
 288 0146 82E0      		ldi r24,lo8(2)
 289               	.LVL7:
 290 0148 8093 C000 		sts 192,r24
 291               	.LM59:
 292 014c 88E9      		ldi r24,lo8(-104)
 293 014e 8093 C100 		sts 193,r24
 294               	.LM60:
 295 0152 86E0      		ldi r24,lo8(6)
 296 0154 8093 C200 		sts 194,r24
 297               	.LM61:
 298               	/* #APP */
 299               	 ;  740 "main.c" 1
 300 0158 7894      		sei
 301               	 ;  0 "" 2
 302               	/* epilogue start */
 303               	.LM62:
 304               	/* #NOAPP */
 305 015a 0895      		ret
 306               	.LFE10:
 308               	.global	put_char
 310               	put_char:
 311               	.LFB11:
 312               	.LM63:
 313               	.LVL8:
 314               	/* prologue: function */
 315               	/* frame size = 0 */
 316 015c 982F      		mov r25,r24
 317               	.LVL9:
 318               	.L34:
 319               	.LM64:
 320 015e 8091 C000 		lds r24,192
 321 0162 85FF      		sbrs r24,5
 322 0164 00C0      		rjmp .L34
 323               	.LM65:
 324 0166 9093 C600 		sts 198,r25
 325               	/* epilogue start */
 326               	.LM66:
 327 016a 0895      		ret
 328               	.LFE11:
 330               	.global	delay
 332               	delay:
 333               	.LFB12:
 334               	.LM67:
 335               	/* prologue: function */
 336               	/* frame size = 0 */
 337               	.LM68:
 338 016c 80E0      		ldi r24,lo8(0)
 339               	.LVL10:
 340               	.L38:
 341               	.LM69:
 342               	/* #APP */
 343               	 ;  759 "main.c" 1
 344 016e 0000      		nop
 345               	 ;  0 "" 2
 346               	.LM70:
 347               	/* #NOAPP */
 348 0170 8F5F      		subi r24,lo8(-(1))
 349 0172 8E31      		cpi r24,lo8(30)
 350 0174 01F4      		brne .L38
 351               	/* epilogue start */
 352               	.LM71:
 353 0176 0895      		ret
 354               	.LFE12:
 356               	.global	set_data
 358               	set_data:
 359               	.LFB13:
 360               	.LM72:
 361               	.LVL11:
 362               	/* prologue: function */
 363               	/* frame size = 0 */
 364               	.LM73:
 365 0178 95B1      		in r25,37-32
 366 017a 9C7F      		andi r25,lo8(-4)
 367 017c 95B9      		out 37-32,r25
 368               	.LM74:
 369 017e 9BB1      		in r25,43-32
 370 0180 9370      		andi r25,lo8(3)
 371 0182 9BB9      		out 43-32,r25
 372               	.LM75:
 373 0184 25B1      		in r18,37-32
 374 0186 982F      		mov r25,r24
 375 0188 9370      		andi r25,lo8(3)
 376 018a 922B      		or r25,r18
 377 018c 95B9      		out 37-32,r25
 378               	.LM76:
 379 018e 9BB1      		in r25,43-32
 380 0190 8C7F      		andi r24,lo8(-4)
 381               	.LVL12:
 382 0192 982B      		or r25,r24
 383 0194 9BB9      		out 43-32,r25
 384               	/* epilogue start */
 385               	.LM77:
 386 0196 0895      		ret
 387               	.LFE13:
 389               	.global	set_x
 391               	set_x:
 392               	.LFB15:
 393               	.LM78:
 394               	.LVL13:
 395               	/* prologue: function */
 396               	/* frame size = 0 */
 397               	.LM79:
 398 0198 8823      		tst r24
 399 019a 01F4      		brne .L44
 400 019c 93E0      		ldi r25,lo8(3)
 401 019e 2CE7      		ldi r18,lo8(124)
 402               	.L45:
 403               	.LM80:
 404 01a0 88B1      		in r24,40-32
 405               	.LVL14:
 406 01a2 887F      		andi r24,lo8(-8)
 407 01a4 88B9      		out 40-32,r24
 408               	.LBB164:
 409               	.LBB165:
 410               	.LM81:
 411 01a6 85B1      		in r24,37-32
 412 01a8 8C7F      		andi r24,lo8(-4)
 413 01aa 85B9      		out 37-32,r24
 414               	.LM82:
 415 01ac 8BB1      		in r24,43-32
 416 01ae 8370      		andi r24,lo8(3)
 417 01b0 8BB9      		out 43-32,r24
 418               	.LM83:
 419 01b2 85B1      		in r24,37-32
 420 01b4 982B      		or r25,r24
 421 01b6 95B9      		out 37-32,r25
 422               	.LM84:
 423 01b8 8BB1      		in r24,43-32
 424 01ba 282B      		or r18,r24
 425 01bc 2BB9      		out 43-32,r18
 426 01be 80E0      		ldi r24,lo8(0)
 427               	.LVL15:
 428               	.L46:
 429               	.LBE165:
 430               	.LBE164:
 431               	.LBB166:
 432               	.LBB167:
 433               	.LM85:
 434               	/* #APP */
 435               	 ;  759 "main.c" 1
 436 01c0 0000      		nop
 437               	 ;  0 "" 2
 438               	.LM86:
 439               	/* #NOAPP */
 440 01c2 8F5F      		subi r24,lo8(-(1))
 441 01c4 8E31      		cpi r24,lo8(30)
 442 01c6 01F4      		brne .L46
 443               	.LBE167:
 444               	.LBE166:
 445               	.LM87:
 446 01c8 409A      		sbi 40-32,0
 447 01ca 80E0      		ldi r24,lo8(0)
 448               	.LVL16:
 449               	.L47:
 450               	.LBB168:
 451               	.LBB169:
 452               	.LM88:
 453               	/* #APP */
 454               	 ;  759 "main.c" 1
 455 01cc 0000      		nop
 456               	 ;  0 "" 2
 457               	.LM89:
 458               	/* #NOAPP */
 459 01ce 8F5F      		subi r24,lo8(-(1))
 460 01d0 8E31      		cpi r24,lo8(30)
 461 01d2 01F4      		brne .L47
 462               	.LBE169:
 463               	.LBE168:
 464               	.LM90:
 465 01d4 4098      		cbi 40-32,0
 466 01d6 80E0      		ldi r24,lo8(0)
 467               	.LVL17:
 468               	.L48:
 469               	.LBB170:
 470               	.LBB171:
 471               	.LM91:
 472               	/* #APP */
 473               	 ;  759 "main.c" 1
 474 01d8 0000      		nop
 475               	 ;  0 "" 2
 476               	.LM92:
 477               	/* #NOAPP */
 478 01da 8F5F      		subi r24,lo8(-(1))
 479 01dc 8E31      		cpi r24,lo8(30)
 480 01de 01F4      		brne .L48
 481               	.LBE171:
 482               	.LBE170:
 483               	.LM93:
 484 01e0 88B1      		in r24,40-32
 485               	.LVL18:
 486 01e2 8760      		ori r24,lo8(7)
 487 01e4 88B9      		out 40-32,r24
 488 01e6 80E0      		ldi r24,lo8(0)
 489               	.LVL19:
 490               	.L49:
 491               	.LBB172:
 492               	.LBB173:
 493               	.LM94:
 494               	/* #APP */
 495               	 ;  759 "main.c" 1
 496 01e8 0000      		nop
 497               	 ;  0 "" 2
 498               	.LM95:
 499               	/* #NOAPP */
 500 01ea 8F5F      		subi r24,lo8(-(1))
 501 01ec 8E31      		cpi r24,lo8(30)
 502 01ee 01F4      		brne .L49
 503               	/* epilogue start */
 504               	.LBE173:
 505               	.LBE172:
 506               	.LM96:
 507 01f0 0895      		ret
 508               	.LVL20:
 509               	.L44:
 510               	.LM97:
 511 01f2 8150      		subi r24,lo8(-(-1))
 512               	.LVL21:
 513 01f4 8064      		ori r24,lo8(64)
 514 01f6 982F      		mov r25,r24
 515 01f8 9370      		andi r25,lo8(3)
 516 01fa 282F      		mov r18,r24
 517 01fc 2C7F      		andi r18,lo8(-4)
 518 01fe 00C0      		rjmp .L45
 519               	.LFE15:
 521               	.global	set_page
 523               	set_page:
 524               	.LFB17:
 525               	.LM98:
 526               	.LVL22:
 527               	/* prologue: function */
 528               	/* frame size = 0 */
 529               	.LM99:
 530 0200 98B1      		in r25,40-32
 531 0202 987F      		andi r25,lo8(-8)
 532 0204 98B9      		out 40-32,r25
 533               	.LBB174:
 534               	.LBB175:
 535               	.LM100:
 536 0206 95B1      		in r25,37-32
 537 0208 9C7F      		andi r25,lo8(-4)
 538 020a 95B9      		out 37-32,r25
 539               	.LM101:
 540 020c 9BB1      		in r25,43-32
 541 020e 9370      		andi r25,lo8(3)
 542 0210 9BB9      		out 43-32,r25
 543               	.LM102:
 544 0212 25B1      		in r18,37-32
 545 0214 886B      		ori r24,lo8(-72)
 546               	.LVL23:
 547 0216 982F      		mov r25,r24
 548 0218 9370      		andi r25,lo8(3)
 549 021a 922B      		or r25,r18
 550 021c 95B9      		out 37-32,r25
 551               	.LM103:
 552 021e 9BB1      		in r25,43-32
 553 0220 8C7F      		andi r24,lo8(-4)
 554 0222 892B      		or r24,r25
 555 0224 8BB9      		out 43-32,r24
 556 0226 80E0      		ldi r24,lo8(0)
 557               	.LVL24:
 558               	.L56:
 559               	.LBE175:
 560               	.LBE174:
 561               	.LBB176:
 562               	.LBB177:
 563               	.LM104:
 564               	/* #APP */
 565               	 ;  759 "main.c" 1
 566 0228 0000      		nop
 567               	 ;  0 "" 2
 568               	.LM105:
 569               	/* #NOAPP */
 570 022a 8F5F      		subi r24,lo8(-(1))
 571 022c 8E31      		cpi r24,lo8(30)
 572 022e 01F4      		brne .L56
 573               	.LBE177:
 574               	.LBE176:
 575               	.LM106:
 576 0230 409A      		sbi 40-32,0
 577 0232 80E0      		ldi r24,lo8(0)
 578               	.LVL25:
 579               	.L57:
 580               	.LBB178:
 581               	.LBB179:
 582               	.LM107:
 583               	/* #APP */
 584               	 ;  759 "main.c" 1
 585 0234 0000      		nop
 586               	 ;  0 "" 2
 587               	.LM108:
 588               	/* #NOAPP */
 589 0236 8F5F      		subi r24,lo8(-(1))
 590 0238 8E31      		cpi r24,lo8(30)
 591 023a 01F4      		brne .L57
 592               	.LBE179:
 593               	.LBE178:
 594               	.LM109:
 595 023c 4098      		cbi 40-32,0
 596 023e 80E0      		ldi r24,lo8(0)
 597               	.LVL26:
 598               	.L58:
 599               	.LBB180:
 600               	.LBB181:
 601               	.LM110:
 602               	/* #APP */
 603               	 ;  759 "main.c" 1
 604 0240 0000      		nop
 605               	 ;  0 "" 2
 606               	.LM111:
 607               	/* #NOAPP */
 608 0242 8F5F      		subi r24,lo8(-(1))
 609 0244 8E31      		cpi r24,lo8(30)
 610 0246 01F4      		brne .L58
 611               	.LBE181:
 612               	.LBE180:
 613               	.LM112:
 614 0248 88B1      		in r24,40-32
 615               	.LVL27:
 616 024a 8760      		ori r24,lo8(7)
 617 024c 88B9      		out 40-32,r24
 618 024e 80E0      		ldi r24,lo8(0)
 619               	.LVL28:
 620               	.L59:
 621               	.LBB182:
 622               	.LBB183:
 623               	.LM113:
 624               	/* #APP */
 625               	 ;  759 "main.c" 1
 626 0250 0000      		nop
 627               	 ;  0 "" 2
 628               	.LM114:
 629               	/* #NOAPP */
 630 0252 8F5F      		subi r24,lo8(-(1))
 631 0254 8E31      		cpi r24,lo8(30)
 632 0256 01F4      		brne .L59
 633               	/* epilogue start */
 634               	.LBE183:
 635               	.LBE182:
 636               	.LM115:
 637 0258 0895      		ret
 638               	.LFE17:
 640               	.global	write_byte
 642               	write_byte:
 643               	.LFB18:
 644               	.LM116:
 645               	.LVL29:
 646               	/* prologue: function */
 647               	/* frame size = 0 */
 648               	.LM117:
 649 025a 419A      		sbi 40-32,1
 650               	.LBB184:
 651               	.LBB185:
 652               	.LM118:
 653 025c 95B1      		in r25,37-32
 654 025e 9C7F      		andi r25,lo8(-4)
 655 0260 95B9      		out 37-32,r25
 656               	.LM119:
 657 0262 9BB1      		in r25,43-32
 658 0264 9370      		andi r25,lo8(3)
 659 0266 9BB9      		out 43-32,r25
 660               	.LM120:
 661 0268 25B1      		in r18,37-32
 662 026a 982F      		mov r25,r24
 663 026c 9370      		andi r25,lo8(3)
 664 026e 922B      		or r25,r18
 665 0270 95B9      		out 37-32,r25
 666               	.LM121:
 667 0272 9BB1      		in r25,43-32
 668 0274 8C7F      		andi r24,lo8(-4)
 669               	.LVL30:
 670 0276 982B      		or r25,r24
 671 0278 9BB9      		out 43-32,r25
 672 027a 80E0      		ldi r24,lo8(0)
 673               	.LVL31:
 674               	.L66:
 675               	.LBE185:
 676               	.LBE184:
 677               	.LBB186:
 678               	.LBB187:
 679               	.LM122:
 680               	/* #APP */
 681               	 ;  759 "main.c" 1
 682 027c 0000      		nop
 683               	 ;  0 "" 2
 684               	.LM123:
 685               	/* #NOAPP */
 686 027e 8F5F      		subi r24,lo8(-(1))
 687 0280 8E31      		cpi r24,lo8(30)
 688 0282 01F4      		brne .L66
 689               	.LBE187:
 690               	.LBE186:
 691               	.LM124:
 692 0284 6130      		cpi r22,lo8(1)
 693 0286 01F0      		breq .L79
 694               	.LM125:
 695 0288 6230      		cpi r22,lo8(2)
 696 028a 01F0      		breq .L69
 697               	.L78:
 698 028c 80E0      		ldi r24,lo8(0)
 699               	.LVL32:
 700               	.L73:
 701               	.LBB188:
 702               	.LBB189:
 703               	.LM126:
 704               	/* #APP */
 705               	 ;  759 "main.c" 1
 706 028e 0000      		nop
 707               	 ;  0 "" 2
 708               	.LM127:
 709               	/* #NOAPP */
 710 0290 8F5F      		subi r24,lo8(-(1))
 711 0292 8E31      		cpi r24,lo8(30)
 712 0294 01F4      		brne .L73
 713               	.LBE189:
 714               	.LBE188:
 715               	.LM128:
 716 0296 409A      		sbi 40-32,0
 717 0298 80E0      		ldi r24,lo8(0)
 718               	.LVL33:
 719               	.L70:
 720               	.LBB190:
 721               	.LBB191:
 722               	.LM129:
 723               	/* #APP */
 724               	 ;  759 "main.c" 1
 725 029a 0000      		nop
 726               	 ;  0 "" 2
 727               	.LM130:
 728               	/* #NOAPP */
 729 029c 8F5F      		subi r24,lo8(-(1))
 730 029e 8E31      		cpi r24,lo8(30)
 731 02a0 01F4      		brne .L70
 732               	.LBE191:
 733               	.LBE190:
 734               	.LM131:
 735 02a2 4098      		cbi 40-32,0
 736 02a4 80E0      		ldi r24,lo8(0)
 737               	.LVL34:
 738               	.L71:
 739               	.LBB192:
 740               	.LBB193:
 741               	.LM132:
 742               	/* #APP */
 743               	 ;  759 "main.c" 1
 744 02a6 0000      		nop
 745               	 ;  0 "" 2
 746               	.LM133:
 747               	/* #NOAPP */
 748 02a8 8F5F      		subi r24,lo8(-(1))
 749 02aa 8E31      		cpi r24,lo8(30)
 750 02ac 01F4      		brne .L71
 751               	.LBE193:
 752               	.LBE192:
 753               	.LM134:
 754 02ae 88B1      		in r24,40-32
 755               	.LVL35:
 756 02b0 8563      		ori r24,lo8(53)
 757 02b2 88B9      		out 40-32,r24
 758               	/* epilogue start */
 759               	.LM135:
 760 02b4 0895      		ret
 761               	.LVL36:
 762               	.L69:
 763               	.LM136:
 764 02b6 88B1      		in r24,40-32
 765               	.LVL37:
 766 02b8 8A7D      		andi r24,lo8(-38)
 767 02ba 88B9      		out 40-32,r24
 768 02bc 00C0      		rjmp .L78
 769               	.LVL38:
 770               	.L79:
 771               	.LM137:
 772 02be 88B1      		in r24,40-32
 773               	.LVL39:
 774 02c0 8A7E      		andi r24,lo8(-22)
 775 02c2 88B9      		out 40-32,r24
 776 02c4 80E0      		ldi r24,lo8(0)
 777               	.LVL40:
 778 02c6 00C0      		rjmp .L73
 779               	.LFE18:
 781               	.global	display_on
 783               	display_on:
 784               	.LFB19:
 785               	.LM138:
 786               	/* prologue: function */
 787               	/* frame size = 0 */
 788               	.LBB194:
 789               	.LBB195:
 790               	.LM139:
 791 02c8 85B1      		in r24,37-32
 792 02ca 8C7F      		andi r24,lo8(-4)
 793 02cc 85B9      		out 37-32,r24
 794               	.LM140:
 795 02ce 8BB1      		in r24,43-32
 796 02d0 8370      		andi r24,lo8(3)
 797 02d2 8BB9      		out 43-32,r24
 798               	.LM141:
 799 02d4 85B1      		in r24,37-32
 800 02d6 8360      		ori r24,lo8(3)
 801 02d8 85B9      		out 37-32,r24
 802               	.LM142:
 803 02da 8BB1      		in r24,43-32
 804 02dc 8C63      		ori r24,lo8(60)
 805 02de 8BB9      		out 43-32,r24
 806               	.LBE195:
 807               	.LBE194:
 808               	.LM143:
 809 02e0 88B1      		in r24,40-32
 810 02e2 887F      		andi r24,lo8(-8)
 811 02e4 88B9      		out 40-32,r24
 812 02e6 80E0      		ldi r24,lo8(0)
 813               	.LVL41:
 814               	.L81:
 815               	.LBB196:
 816               	.LBB197:
 817               	.LM144:
 818               	/* #APP */
 819               	 ;  759 "main.c" 1
 820 02e8 0000      		nop
 821               	 ;  0 "" 2
 822               	.LM145:
 823               	/* #NOAPP */
 824 02ea 8F5F      		subi r24,lo8(-(1))
 825 02ec 8E31      		cpi r24,lo8(30)
 826 02ee 01F4      		brne .L81
 827               	.LBE197:
 828               	.LBE196:
 829               	.LM146:
 830 02f0 409A      		sbi 40-32,0
 831 02f2 80E0      		ldi r24,lo8(0)
 832               	.LVL42:
 833               	.L82:
 834               	.LBB198:
 835               	.LBB199:
 836               	.LM147:
 837               	/* #APP */
 838               	 ;  759 "main.c" 1
 839 02f4 0000      		nop
 840               	 ;  0 "" 2
 841               	.LM148:
 842               	/* #NOAPP */
 843 02f6 8F5F      		subi r24,lo8(-(1))
 844 02f8 8E31      		cpi r24,lo8(30)
 845 02fa 01F4      		brne .L82
 846               	.LBE199:
 847               	.LBE198:
 848               	.LM149:
 849 02fc 4098      		cbi 40-32,0
 850               	.LM150:
 851 02fe 88B1      		in r24,40-32
 852               	.LVL43:
 853 0300 8760      		ori r24,lo8(7)
 854 0302 88B9      		out 40-32,r24
 855               	/* epilogue start */
 856               	.LM151:
 857 0304 0895      		ret
 858               	.LFE19:
 860               	.global	read_byte
 862               	read_byte:
 863               	.LFB22:
 864               	.LM152:
 865               	.LVL44:
 866 0306 1F93      		push r17
 867               	/* prologue: function */
 868               	/* frame size = 0 */
 869 0308 162F      		mov r17,r22
 870               	.LM153:
 871 030a 8823      		tst r24
 872 030c 01F0      		breq .+2
 873 030e 00C0      		rjmp .L87
 874               	.LVL45:
 875 0310 8FE3      		ldi r24,lo8(63)
 876               	.LVL46:
 877               	.L88:
 878               	.LM154:
 879 0312 0E94 0000 		call set_x
 880               	.LVL47:
 881               	.LM155:
 882 0316 88B1      		in r24,40-32
 883 0318 8F63      		ori r24,lo8(63)
 884 031a 88B9      		out 40-32,r24
 885               	.LM156:
 886 031c 84B1      		in r24,36-32
 887 031e 8C7F      		andi r24,lo8(-4)
 888 0320 84B9      		out 36-32,r24
 889               	.LM157:
 890 0322 1AB8      		out 42-32,__zero_reg__
 891 0324 80E0      		ldi r24,lo8(0)
 892               	.LVL48:
 893               	.L89:
 894               	.LBB200:
 895               	.LBB201:
 896               	.LM158:
 897               	/* #APP */
 898               	 ;  759 "main.c" 1
 899 0326 0000      		nop
 900               	 ;  0 "" 2
 901               	.LM159:
 902               	/* #NOAPP */
 903 0328 8F5F      		subi r24,lo8(-(1))
 904 032a 8E31      		cpi r24,lo8(30)
 905 032c 01F4      		brne .L89
 906 032e 80E0      		ldi r24,lo8(0)
 907               	.LVL49:
 908               	.L90:
 909               	.LBE201:
 910               	.LBE200:
 911               	.LBB202:
 912               	.LBB203:
 913               	.LM160:
 914               	/* #APP */
 915               	 ;  759 "main.c" 1
 916 0330 0000      		nop
 917               	 ;  0 "" 2
 918               	.LM161:
 919               	/* #NOAPP */
 920 0332 8F5F      		subi r24,lo8(-(1))
 921 0334 8E31      		cpi r24,lo8(30)
 922 0336 01F4      		brne .L90
 923               	.LBE203:
 924               	.LBE202:
 925               	.LM162:
 926 0338 1130      		cpi r17,lo8(1)
 927 033a 01F4      		brne .+2
 928 033c 00C0      		rjmp .L128
 929               	.LM163:
 930 033e 1230      		cpi r17,lo8(2)
 931 0340 01F4      		brne .+2
 932 0342 00C0      		rjmp .L93
 933               	.L126:
 934 0344 80E0      		ldi r24,lo8(0)
 935               	.LVL50:
 936               	.L110:
 937               	.LBB204:
 938               	.LBB205:
 939               	.LM164:
 940               	/* #APP */
 941               	 ;  759 "main.c" 1
 942 0346 0000      		nop
 943               	 ;  0 "" 2
 944               	.LM165:
 945               	/* #NOAPP */
 946 0348 8F5F      		subi r24,lo8(-(1))
 947 034a 8E31      		cpi r24,lo8(30)
 948 034c 01F4      		brne .L110
 949 034e 80E0      		ldi r24,lo8(0)
 950               	.LVL51:
 951               	.L94:
 952               	.LBE205:
 953               	.LBE204:
 954               	.LBB206:
 955               	.LBB207:
 956               	.LM166:
 957               	/* #APP */
 958               	 ;  759 "main.c" 1
 959 0350 0000      		nop
 960               	 ;  0 "" 2
 961               	.LM167:
 962               	/* #NOAPP */
 963 0352 8F5F      		subi r24,lo8(-(1))
 964 0354 8E31      		cpi r24,lo8(30)
 965 0356 01F4      		brne .L94
 966               	.LBE207:
 967               	.LBE206:
 968               	.LM168:
 969 0358 409A      		sbi 40-32,0
 970 035a 80E0      		ldi r24,lo8(0)
 971               	.LVL52:
 972               	.L95:
 973               	.LBB208:
 974               	.LBB209:
 975               	.LM169:
 976               	/* #APP */
 977               	 ;  759 "main.c" 1
 978 035c 0000      		nop
 979               	 ;  0 "" 2
 980               	.LM170:
 981               	/* #NOAPP */
 982 035e 8F5F      		subi r24,lo8(-(1))
 983 0360 8E31      		cpi r24,lo8(30)
 984 0362 01F4      		brne .L95
 985 0364 80E0      		ldi r24,lo8(0)
 986               	.LVL53:
 987               	.L96:
 988               	.LBE209:
 989               	.LBE208:
 990               	.LBB210:
 991               	.LBB211:
 992               	.LM171:
 993               	/* #APP */
 994               	 ;  759 "main.c" 1
 995 0366 0000      		nop
 996               	 ;  0 "" 2
 997               	.LM172:
 998               	/* #NOAPP */
 999 0368 8F5F      		subi r24,lo8(-(1))
 1000 036a 8E31      		cpi r24,lo8(30)
 1001 036c 01F4      		brne .L96
 1002               	.LBE211:
 1003               	.LBE210:
 1004               	.LM173:
 1005 036e 4098      		cbi 40-32,0
 1006 0370 80E0      		ldi r24,lo8(0)
 1007               	.LVL54:
 1008               	.L97:
 1009               	.LBB212:
 1010               	.LBB213:
 1011               	.LM174:
 1012               	/* #APP */
 1013               	 ;  759 "main.c" 1
 1014 0372 0000      		nop
 1015               	 ;  0 "" 2
 1016               	.LM175:
 1017               	/* #NOAPP */
 1018 0374 8F5F      		subi r24,lo8(-(1))
 1019 0376 8E31      		cpi r24,lo8(30)
 1020 0378 01F4      		brne .L97
 1021 037a 80E0      		ldi r24,lo8(0)
 1022               	.LVL55:
 1023               	.L98:
 1024               	.LBE213:
 1025               	.LBE212:
 1026               	.LBB214:
 1027               	.LBB215:
 1028               	.LM176:
 1029               	/* #APP */
 1030               	 ;  759 "main.c" 1
 1031 037c 0000      		nop
 1032               	 ;  0 "" 2
 1033               	.LM177:
 1034               	/* #NOAPP */
 1035 037e 8F5F      		subi r24,lo8(-(1))
 1036 0380 8E31      		cpi r24,lo8(30)
 1037 0382 01F4      		brne .L98
 1038               	.LBE215:
 1039               	.LBE214:
 1040               	.LM178:
 1041 0384 88B1      		in r24,40-32
 1042               	.LVL56:
 1043 0386 8F63      		ori r24,lo8(63)
 1044 0388 88B9      		out 40-32,r24
 1045 038a 80E0      		ldi r24,lo8(0)
 1046               	.LVL57:
 1047               	.L99:
 1048               	.LBB216:
 1049               	.LBB217:
 1050               	.LM179:
 1051               	/* #APP */
 1052               	 ;  759 "main.c" 1
 1053 038c 0000      		nop
 1054               	 ;  0 "" 2
 1055               	.LM180:
 1056               	/* #NOAPP */
 1057 038e 8F5F      		subi r24,lo8(-(1))
 1058 0390 8E31      		cpi r24,lo8(30)
 1059 0392 01F4      		brne .L99
 1060 0394 80E0      		ldi r24,lo8(0)
 1061               	.LVL58:
 1062               	.L100:
 1063               	.LBE217:
 1064               	.LBE216:
 1065               	.LBB218:
 1066               	.LBB219:
 1067               	.LM181:
 1068               	/* #APP */
 1069               	 ;  759 "main.c" 1
 1070 0396 0000      		nop
 1071               	 ;  0 "" 2
 1072               	.LM182:
 1073               	/* #NOAPP */
 1074 0398 8F5F      		subi r24,lo8(-(1))
 1075 039a 8E31      		cpi r24,lo8(30)
 1076 039c 01F4      		brne .L100
 1077               	.LBE219:
 1078               	.LBE218:
 1079               	.LM183:
 1080 039e 1130      		cpi r17,lo8(1)
 1081 03a0 01F0      		breq .L129
 1082               	.LM184:
 1083 03a2 1230      		cpi r17,lo8(2)
 1084 03a4 01F0      		breq .L103
 1085               	.L127:
 1086 03a6 80E0      		ldi r24,lo8(0)
 1087               	.LVL59:
 1088               	.L109:
 1089               	.LBB220:
 1090               	.LBB221:
 1091               	.LM185:
 1092               	/* #APP */
 1093               	 ;  759 "main.c" 1
 1094 03a8 0000      		nop
 1095               	 ;  0 "" 2
 1096               	.LM186:
 1097               	/* #NOAPP */
 1098 03aa 8F5F      		subi r24,lo8(-(1))
 1099 03ac 8E31      		cpi r24,lo8(30)
 1100 03ae 01F4      		brne .L109
 1101 03b0 80E0      		ldi r24,lo8(0)
 1102               	.LVL60:
 1103               	.L104:
 1104               	.LBE221:
 1105               	.LBE220:
 1106               	.LBB222:
 1107               	.LBB223:
 1108               	.LM187:
 1109               	/* #APP */
 1110               	 ;  759 "main.c" 1
 1111 03b2 0000      		nop
 1112               	 ;  0 "" 2
 1113               	.LM188:
 1114               	/* #NOAPP */
 1115 03b4 8F5F      		subi r24,lo8(-(1))
 1116 03b6 8E31      		cpi r24,lo8(30)
 1117 03b8 01F4      		brne .L104
 1118               	.LBE223:
 1119               	.LBE222:
 1120               	.LM189:
 1121 03ba 409A      		sbi 40-32,0
 1122 03bc 80E0      		ldi r24,lo8(0)
 1123               	.LVL61:
 1124               	.L105:
 1125               	.LBB224:
 1126               	.LBB225:
 1127               	.LM190:
 1128               	/* #APP */
 1129               	 ;  759 "main.c" 1
 1130 03be 0000      		nop
 1131               	 ;  0 "" 2
 1132               	.LM191:
 1133               	/* #NOAPP */
 1134 03c0 8F5F      		subi r24,lo8(-(1))
 1135 03c2 8E31      		cpi r24,lo8(30)
 1136 03c4 01F4      		brne .L105
 1137 03c6 80E0      		ldi r24,lo8(0)
 1138               	.LVL62:
 1139               	.L106:
 1140               	.LBE225:
 1141               	.LBE224:
 1142               	.LBB226:
 1143               	.LBB227:
 1144               	.LM192:
 1145               	/* #APP */
 1146               	 ;  759 "main.c" 1
 1147 03c8 0000      		nop
 1148               	 ;  0 "" 2
 1149               	.LM193:
 1150               	/* #NOAPP */
 1151 03ca 8F5F      		subi r24,lo8(-(1))
 1152 03cc 8E31      		cpi r24,lo8(30)
 1153 03ce 01F4      		brne .L106
 1154               	.LBE227:
 1155               	.LBE226:
 1156               	.LM194:
 1157 03d0 23B1      		in r18,35-32
 1158               	.LVL63:
 1159               	.LM195:
 1160 03d2 99B1      		in r25,41-32
 1161               	.LVL64:
 1162               	.LM196:
 1163 03d4 4098      		cbi 40-32,0
 1164               	.LM197:
 1165 03d6 88B1      		in r24,40-32
 1166               	.LVL65:
 1167 03d8 8F63      		ori r24,lo8(63)
 1168 03da 88B9      		out 40-32,r24
 1169               	.LM198:
 1170 03dc 84B1      		in r24,36-32
 1171 03de 8360      		ori r24,lo8(3)
 1172 03e0 84B9      		out 36-32,r24
 1173               	.LM199:
 1174 03e2 8AB1      		in r24,42-32
 1175 03e4 8C6F      		ori r24,lo8(-4)
 1176 03e6 8AB9      		out 42-32,r24
 1177 03e8 80E0      		ldi r24,lo8(0)
 1178               	.LVL66:
 1179               	.L107:
 1180               	.LBB228:
 1181               	.LBB229:
 1182               	.LM200:
 1183               	/* #APP */
 1184               	 ;  759 "main.c" 1
 1185 03ea 0000      		nop
 1186               	 ;  0 "" 2
 1187               	.LM201:
 1188               	/* #NOAPP */
 1189 03ec 8F5F      		subi r24,lo8(-(1))
 1190 03ee 8E31      		cpi r24,lo8(30)
 1191 03f0 01F4      		brne .L107
 1192               	.LBE229:
 1193               	.LBE228:
 1194               	.LM202:
 1195 03f2 2370      		andi r18,lo8(3)
 1196 03f4 9C7F      		andi r25,lo8(-4)
 1197               	.LM203:
 1198 03f6 892F      		mov r24,r25
 1199               	.LVL67:
 1200 03f8 822B      		or r24,r18
 1201               	/* epilogue start */
 1202 03fa 1F91      		pop r17
 1203               	.LVL68:
 1204 03fc 0895      		ret
 1205               	.LVL69:
 1206               	.L87:
 1207               	.LM204:
 1208 03fe 8150      		subi r24,lo8(-(-1))
 1209               	.LVL70:
 1210 0400 00C0      		rjmp .L88
 1211               	.LVL71:
 1212               	.L103:
 1213               	.LM205:
 1214 0402 88B1      		in r24,40-32
 1215               	.LVL72:
 1216 0404 8E7D      		andi r24,lo8(-34)
 1217 0406 88B9      		out 40-32,r24
 1218 0408 00C0      		rjmp .L127
 1219               	.LVL73:
 1220               	.L93:
 1221               	.LM206:
 1222 040a 88B1      		in r24,40-32
 1223               	.LVL74:
 1224 040c 8E7D      		andi r24,lo8(-34)
 1225 040e 88B9      		out 40-32,r24
 1226 0410 00C0      		rjmp .L126
 1227               	.LVL75:
 1228               	.L129:
 1229               	.LM207:
 1230 0412 88B1      		in r24,40-32
 1231               	.LVL76:
 1232 0414 8E7E      		andi r24,lo8(-18)
 1233 0416 88B9      		out 40-32,r24
 1234 0418 80E0      		ldi r24,lo8(0)
 1235               	.LVL77:
 1236 041a 00C0      		rjmp .L109
 1237               	.LVL78:
 1238               	.L128:
 1239               	.LM208:
 1240 041c 88B1      		in r24,40-32
 1241               	.LVL79:
 1242 041e 8E7E      		andi r24,lo8(-18)
 1243 0420 88B9      		out 40-32,r24
 1244 0422 80E0      		ldi r24,lo8(0)
 1245               	.LVL80:
 1246 0424 00C0      		rjmp .L110
 1247               	.LFE22:
 1249               	.global	rnd
 1251               	rnd:
 1252               	.LFB23:
 1253               	.LM209:
 1254               	.LVL81:
 1255 0426 EF92      		push r14
 1256 0428 FF92      		push r15
 1257 042a 0F93      		push r16
 1258 042c 1F93      		push r17
 1259 042e CF93      		push r28
 1260 0430 DF93      		push r29
 1261               	/* prologue: function */
 1262               	/* frame size = 0 */
 1263 0432 7B01      		movw r14,r22
 1264 0434 8C01      		movw r16,r24
 1265               	.LM210:
 1266 0436 0E94 0000 		call __fixsfsi
 1267               	.LVL82:
 1268 043a EB01      		movw r28,r22
 1269               	.LVL83:
 1270               	.LM211:
 1271 043c BE01      		movw r22,r28
 1272 043e 8827      		clr r24
 1273 0440 77FD      		sbrc r23,7
 1274 0442 8095      		com r24
 1275 0444 982F      		mov r25,r24
 1276               	.LVL84:
 1277 0446 0E94 0000 		call __floatsisf
 1278               	.LVL85:
 1279 044a 9B01      		movw r18,r22
 1280 044c AC01      		movw r20,r24
 1281 044e C801      		movw r24,r16
 1282 0450 B701      		movw r22,r14
 1283 0452 0E94 0000 		call __subsf3
 1284 0456 20E0      		ldi r18,lo8(0x3f000000)
 1285 0458 30E0      		ldi r19,hi8(0x3f000000)
 1286 045a 40E0      		ldi r20,hlo8(0x3f000000)
 1287 045c 5FE3      		ldi r21,hhi8(0x3f000000)
 1288 045e 0E94 0000 		call __gesf2
 1289 0462 8823      		tst r24
 1290 0464 04F0      		brlt .L131
 1291 0466 2196      		adiw r28,1
 1292               	.LVL86:
 1293               	.L131:
 1294               	.LM212:
 1295 0468 CE01      		movw r24,r28
 1296               	.LVL87:
 1297               	/* epilogue start */
 1298 046a DF91      		pop r29
 1299 046c CF91      		pop r28
 1300 046e 1F91      		pop r17
 1301 0470 0F91      		pop r16
 1302 0472 FF90      		pop r15
 1303 0474 EF90      		pop r14
 1304               	.LVL88:
 1305 0476 0895      		ret
 1306               	.LFE23:
 1308               	.global	EEPROM_write
 1310               	EEPROM_write:
 1311               	.LFB25:
 1312               	.LM213:
 1313               	/* prologue: function */
 1314               	/* frame size = 0 */
 1315               	.LVL89:
 1316               	.L136:
 1317               	.LM214:
 1318 0478 F999      		sbic 63-32,1
 1319 047a 00C0      		rjmp .L136
 1320               	.LM215:
 1321 047c 92BD      		out (65)+1-32,r25
 1322 047e 81BD      		out 65-32,r24
 1323               	.LM216:
 1324 0480 60BD      		out 64-32,r22
 1325               	.LM217:
 1326 0482 FA9A      		sbi 63-32,2
 1327               	.LM218:
 1328 0484 F99A      		sbi 63-32,1
 1329               	/* epilogue start */
 1330               	.LM219:
 1331 0486 0895      		ret
 1332               	.LFE25:
 1334               	.global	EEPROM_read
 1336               	EEPROM_read:
 1337               	.LFB26:
 1338               	.LM220:
 1339               	/* prologue: function */
 1340               	/* frame size = 0 */
 1341               	.LVL90:
 1342               	.L140:
 1343               	.LM221:
 1344 0488 F999      		sbic 63-32,1
 1345 048a 00C0      		rjmp .L140
 1346               	.LM222:
 1347 048c 92BD      		out (65)+1-32,r25
 1348 048e 81BD      		out 65-32,r24
 1349               	.LM223:
 1350 0490 F89A      		sbi 63-32,0
 1351               	.LM224:
 1352 0492 80B5      		in r24,64-32
 1353               	.LVL91:
 1354               	/* epilogue start */
 1355               	.LM225:
 1356 0494 0895      		ret
 1357               	.LFE26:
 1359               	.global	set_backlight
 1361               	set_backlight:
 1362               	.LFB27:
 1363               	.LM226:
 1364               	.LVL92:
 1365               	/* prologue: function */
 1366               	/* frame size = 0 */
 1367               	.LM227:
 1368 0496 22E0      		ldi r18,lo8(2)
 1369 0498 24BD      		out 68-32,r18
 1370               	.LM228:
 1371 049a 9091 0000 		lds r25,BL_dutycycle
 1372 049e 9436      		cpi r25,lo8(100)
 1373 04a0 00F4      		brsh .L148
 1374               	.LM229:
 1375 04a2 9923      		tst r25
 1376 04a4 01F0      		breq .L149
 1377               	.LM230:
 1378 04a6 15BC      		out 69-32,__zero_reg__
 1379               	.LM231:
 1380 04a8 1092 6E00 		sts 110,__zero_reg__
 1381               	.LM232:
 1382 04ac 84E6      		ldi r24,lo8(100)
 1383               	.LVL93:
 1384 04ae 891B      		sub r24,r25
 1385 04b0 87BD      		out 71-32,r24
 1386               	.LM233:
 1387 04b2 2093 6E00 		sts 110,r18
 1388               	.LM234:
 1389 04b6 25BD      		out 69-32,r18
 1390               	.LM235:
 1391 04b8 8FB7      		in r24,__SREG__
 1392 04ba 8068      		ori r24,lo8(-128)
 1393 04bc 8FBF      		out __SREG__,r24
 1394 04be 0895      		ret
 1395               	.LVL94:
 1396               	.L149:
 1397               	.LM236:
 1398 04c0 15BC      		out 69-32,__zero_reg__
 1399               	.LM237:
 1400 04c2 1092 6E00 		sts 110,__zero_reg__
 1401               	.LM238:
 1402 04c6 2A9A      		sbi 37-32,2
 1403 04c8 0895      		ret
 1404               	.L148:
 1405               	.LM239:
 1406 04ca 15BC      		out 69-32,__zero_reg__
 1407               	.LM240:
 1408 04cc 1092 6E00 		sts 110,__zero_reg__
 1409               	.LM241:
 1410 04d0 2A98      		cbi 37-32,2
 1411 04d2 0895      		ret
 1412               	.LFE27:
 1414               	.global	set_baud
 1416               	set_baud:
 1417               	.LFB32:
 1418               	.LM242:
 1419               	.LVL95:
 1420               	/* prologue: function */
 1421               	/* frame size = 0 */
 1422 04d4 982F      		mov r25,r24
 1423               	.LM243:
 1424 04d6 8130      		cpi r24,lo8(1)
 1425 04d8 01F0      		breq .L160
 1426               	.LM244:
 1427 04da 8230      		cpi r24,lo8(2)
 1428 04dc 01F0      		breq .L161
 1429               	.LM245:
 1430 04de 8330      		cpi r24,lo8(3)
 1431 04e0 01F0      		breq .L162
 1432               	.LM246:
 1433 04e2 8430      		cpi r24,lo8(4)
 1434 04e4 01F0      		breq .L163
 1435               	.LM247:
 1436 04e6 8530      		cpi r24,lo8(5)
 1437 04e8 01F0      		breq .L164
 1438               	.LM248:
 1439 04ea 8630      		cpi r24,lo8(6)
 1440 04ec 01F0      		breq .L165
 1441 04ee 0895      		ret
 1442               	.L160:
 1443               	.LBB230:
 1444               	.LBB231:
 1445               	.LM249:
 1446 04f0 8093 C500 		sts 197,r24
 1447               	.LM250:
 1448 04f4 8FE9      		ldi r24,lo8(-97)
 1449               	.LVL96:
 1450               	.L158:
 1451               	.LBE231:
 1452               	.LBE230:
 1453               	.LBB232:
 1454               	.LBB233:
 1455 04f6 8093 C400 		sts 196,r24
 1456               	.LM251:
 1457 04fa 82E0      		ldi r24,lo8(2)
 1458 04fc 8093 C000 		sts 192,r24
 1459               	.L159:
 1460               	.LM252:
 1461 0500 88E9      		ldi r24,lo8(-104)
 1462 0502 8093 C100 		sts 193,r24
 1463               	.LM253:
 1464 0506 86E0      		ldi r24,lo8(6)
 1465 0508 8093 C200 		sts 194,r24
 1466               	.LM254:
 1467               	/* #APP */
 1468               	 ;  740 "main.c" 1
 1469 050c 7894      		sei
 1470               	 ;  0 "" 2
 1471               	/* #NOAPP */
 1472 050e 0895      		ret
 1473               	.LVL97:
 1474               	.L161:
 1475               	.LBE233:
 1476               	.LBE232:
 1477               	.LBB235:
 1478               	.LBB236:
 1479               	.LM255:
 1480 0510 1092 C500 		sts 197,__zero_reg__
 1481               	.LM256:
 1482 0514 8FEC      		ldi r24,lo8(-49)
 1483               	.LVL98:
 1484 0516 8093 C400 		sts 196,r24
 1485               	.LM257:
 1486 051a 9093 C000 		sts 192,r25
 1487 051e 00C0      		rjmp .L159
 1488               	.LVL99:
 1489               	.L162:
 1490               	.LBE236:
 1491               	.LBE235:
 1492               	.LBB237:
 1493               	.LBB238:
 1494               	.LM258:
 1495 0520 1092 C500 		sts 197,__zero_reg__
 1496               	.LM259:
 1497 0524 87E6      		ldi r24,lo8(103)
 1498               	.LVL100:
 1499 0526 8093 C400 		sts 196,r24
 1500               	.LM260:
 1501 052a 82E0      		ldi r24,lo8(2)
 1502 052c 8093 C000 		sts 192,r24
 1503 0530 00C0      		rjmp .L159
 1504               	.LVL101:
 1505               	.L164:
 1506               	.LBE238:
 1507               	.LBE237:
 1508               	.LBB239:
 1509               	.LBB234:
 1510               	.LM261:
 1511 0532 1092 C500 		sts 197,__zero_reg__
 1512               	.LM262:
 1513 0536 81E2      		ldi r24,lo8(33)
 1514               	.LVL102:
 1515 0538 00C0      		rjmp .L158
 1516               	.LVL103:
 1517               	.L165:
 1518               	.LBE234:
 1519               	.LBE239:
 1520               	.LBB240:
 1521               	.LBB241:
 1522               	.LM263:
 1523 053a 1092 C500 		sts 197,__zero_reg__
 1524               	.LM264:
 1525 053e 80E1      		ldi r24,lo8(16)
 1526               	.LVL104:
 1527 0540 8093 C400 		sts 196,r24
 1528               	.LM265:
 1529 0544 82E0      		ldi r24,lo8(2)
 1530 0546 8093 C000 		sts 192,r24
 1531               	.LM266:
 1532 054a 88E9      		ldi r24,lo8(-104)
 1533 054c 8093 C100 		sts 193,r24
 1534               	.LM267:
 1535 0550 9093 C200 		sts 194,r25
 1536               	.LM268:
 1537               	/* #APP */
 1538               	 ;  740 "main.c" 1
 1539 0554 7894      		sei
 1540               	 ;  0 "" 2
 1541               	/* #NOAPP */
 1542 0556 0895      		ret
 1543               	.LVL105:
 1544               	.L163:
 1545               	.LBE241:
 1546               	.LBE240:
 1547               	.LBB242:
 1548               	.LBB243:
 1549               	.LM269:
 1550 0558 1092 C500 		sts 197,__zero_reg__
 1551               	.LM270:
 1552 055c 83E3      		ldi r24,lo8(51)
 1553               	.LVL106:
 1554 055e 8093 C400 		sts 196,r24
 1555               	.LM271:
 1556 0562 82E0      		ldi r24,lo8(2)
 1557 0564 8093 C000 		sts 192,r24
 1558 0568 00C0      		rjmp .L159
 1559               	.LBE243:
 1560               	.LBE242:
 1561               	.LFE32:
 1563               	.global	read
 1565               	read:
 1566               	.LFB33:
 1567               	.LM272:
 1568               	.LVL107:
 1569 056a 0F93      		push r16
 1570 056c 1F93      		push r17
 1571               	/* prologue: function */
 1572               	/* frame size = 0 */
 1573               	.LM273:
 1574 056e 94B1      		in r25,36-32
 1575 0570 9C7F      		andi r25,lo8(-4)
 1576 0572 94B9      		out 36-32,r25
 1577               	.LM274:
 1578 0574 9AB1      		in r25,42-32
 1579 0576 9270      		andi r25,lo8(2)
 1580 0578 9AB9      		out 42-32,r25
 1581               	.LM275:
 1582 057a 98B1      		in r25,40-32
 1583 057c 997F      		andi r25,lo8(-7)
 1584 057e 98B9      		out 40-32,r25
 1585               	.LM276:
 1586 0580 8130      		cpi r24,lo8(1)
 1587 0582 01F4      		brne .L167
 1588 0584 4398      		cbi 40-32,3
 1589               	.L167:
 1590               	.LM277:
 1591 0586 82E0      		ldi r24,lo8(2)
 1592               	.LVL108:
 1593 0588 0E94 0000 		call delay_us
 1594               	.LM278:
 1595 058c 03B1      		in r16,35-32
 1596               	.LVL109:
 1597               	.LM279:
 1598 058e 0370      		andi r16,lo8(3)
 1599               	.LM280:
 1600 0590 19B1      		in r17,41-32
 1601               	.LVL110:
 1602               	.LM281:
 1603 0592 88B1      		in r24,40-32
 1604 0594 8E60      		ori r24,lo8(14)
 1605 0596 88B9      		out 40-32,r24
 1606               	.LM282:
 1607 0598 82E0      		ldi r24,lo8(2)
 1608 059a 0E94 0000 		call delay_us
 1609 059e 1C7F      		andi r17,lo8(-4)
 1610               	.LM283:
 1611 05a0 812F      		mov r24,r17
 1612 05a2 802B      		or r24,r16
 1613               	/* epilogue start */
 1614 05a4 1F91      		pop r17
 1615               	.LVL111:
 1616 05a6 0F91      		pop r16
 1617               	.LVL112:
 1618 05a8 0895      		ret
 1619               	.LFE33:
 1621               	.global	write
 1623               	write:
 1624               	.LFB34:
 1625               	.LM284:
 1626               	.LVL113:
 1627               	/* prologue: function */
 1628               	/* frame size = 0 */
 1629               	.LM285:
 1630 05aa 94B1      		in r25,36-32
 1631 05ac 9360      		ori r25,lo8(3)
 1632 05ae 94B9      		out 36-32,r25
 1633               	.LM286:
 1634 05b0 9AB1      		in r25,42-32
 1635 05b2 9C6F      		ori r25,lo8(-4)
 1636 05b4 9AB9      		out 42-32,r25
 1637               	.LBB244:
 1638               	.LBB245:
 1639               	.LM287:
 1640 05b6 95B1      		in r25,37-32
 1641 05b8 9C7F      		andi r25,lo8(-4)
 1642 05ba 95B9      		out 37-32,r25
 1643               	.LM288:
 1644 05bc 9BB1      		in r25,43-32
 1645 05be 9370      		andi r25,lo8(3)
 1646 05c0 9BB9      		out 43-32,r25
 1647               	.LM289:
 1648 05c2 25B1      		in r18,37-32
 1649 05c4 962F      		mov r25,r22
 1650 05c6 9370      		andi r25,lo8(3)
 1651 05c8 922B      		or r25,r18
 1652 05ca 95B9      		out 37-32,r25
 1653               	.LM290:
 1654 05cc 9BB1      		in r25,43-32
 1655 05ce 6C7F      		andi r22,lo8(-4)
 1656               	.LVL114:
 1657 05d0 962B      		or r25,r22
 1658 05d2 9BB9      		out 43-32,r25
 1659               	.LBE245:
 1660               	.LBE244:
 1661               	.LM291:
 1662 05d4 8130      		cpi r24,lo8(1)
 1663 05d6 01F0      		breq .L173
 1664               	.LM292:
 1665 05d8 88B1      		in r24,40-32
 1666               	.LVL115:
 1667 05da 8A7F      		andi r24,lo8(-6)
 1668 05dc 88B9      		out 40-32,r24
 1669               	.L171:
 1670               	.LM293:
 1671 05de 82E0      		ldi r24,lo8(2)
 1672 05e0 0E94 0000 		call delay_us
 1673               	.LVL116:
 1674               	.LM294:
 1675 05e4 88B1      		in r24,40-32
 1676 05e6 8D60      		ori r24,lo8(13)
 1677 05e8 88B9      		out 40-32,r24
 1678               	.LM295:
 1679 05ea 82E0      		ldi r24,lo8(2)
 1680 05ec 0E94 0000 		call delay_us
 1681               	.LM296:
 1682 05f0 84B1      		in r24,36-32
 1683 05f2 8C7F      		andi r24,lo8(-4)
 1684 05f4 84B9      		out 36-32,r24
 1685               	.LM297:
 1686 05f6 8AB1      		in r24,42-32
 1687 05f8 8270      		andi r24,lo8(2)
 1688 05fa 8AB9      		out 42-32,r24
 1689               	.LM298:
 1690 05fc 82E0      		ldi r24,lo8(2)
 1691 05fe 0E94 0000 		call delay_us
 1692               	/* epilogue start */
 1693               	.LM299:
 1694 0602 0895      		ret
 1695               	.LVL117:
 1696               	.L173:
 1697               	.LM300:
 1698 0604 88B1      		in r24,40-32
 1699               	.LVL118:
 1700 0606 827F      		andi r24,lo8(-14)
 1701 0608 88B9      		out 40-32,r24
 1702 060a 00C0      		rjmp .L171
 1703               	.LFE34:
 1705               	.global	pixel
 1707               	pixel:
 1708               	.LFB20:
 1709               	.LM301:
 1710               	.LVL119:
 1711 060c EF92      		push r14
 1712 060e FF92      		push r15
 1713 0610 0F93      		push r16
 1714 0612 1F93      		push r17
 1715 0614 CF93      		push r28
 1716 0616 DF93      		push r29
 1717               	/* prologue: function */
 1718               	/* frame size = 0 */
 1719 0618 F82E      		mov r15,r24
 1720 061a 162F      		mov r17,r22
 1721               	.LM302:
 1722 061c 5091 0000 		lds r21,display
 1723 0620 652F      		mov r22,r21
 1724               	.LVL120:
 1725 0622 70E0      		ldi r23,lo8(0)
 1726 0624 212F      		mov r18,r17
 1727 0626 30E0      		ldi r19,lo8(0)
 1728               	.LVL121:
 1729 0628 CB01      		movw r24,r22
 1730               	.LVL122:
 1731 062a 880F      		lsl r24
 1732 062c 991F      		rol r25
 1733 062e 8295      		swap r24
 1734 0630 9295      		swap r25
 1735 0632 907F      		andi r25,0xf0
 1736 0634 9827      		eor r25,r24
 1737 0636 807F      		andi r24,0xf0
 1738 0638 9827      		eor r25,r24
 1739 063a 8158      		subi r24,lo8(-(127))
 1740 063c 9F4F      		sbci r25,hi8(-(127))
 1741 063e 8217      		cp r24,r18
 1742 0640 9307      		cpc r25,r19
 1743 0642 04F4      		brge .+2
 1744 0644 00C0      		rjmp .L186
 1745               	.LVL123:
 1746               	.LM303:
 1747 0646 E42F      		mov r30,r20
 1748 0648 F0E0      		ldi r31,lo8(0)
 1749 064a 0024      		clr __tmp_reg__
 1750 064c 7695      		lsr r23
 1751 064e 6795      		ror r22
 1752 0650 0794      		ror __tmp_reg__
 1753 0652 7695      		lsr r23
 1754 0654 6795      		ror r22
 1755 0656 0794      		ror __tmp_reg__
 1756 0658 762F      		mov r23,r22
 1757 065a 602D      		mov r22,__tmp_reg__
 1758 065c 615C      		subi r22,lo8(-(63))
 1759 065e 7F4F      		sbci r23,hi8(-(63))
 1760 0660 6E17      		cp r22,r30
 1761 0662 7F07      		cpc r23,r31
 1762 0664 04F4      		brge .+2
 1763 0666 00C0      		rjmp .L186
 1764               	.LM304:
 1765 0668 8091 0000 		lds r24,reverse
 1766 066c 8130      		cpi r24,lo8(1)
 1767 066e 01F4      		brne .+2
 1768 0670 00C0      		rjmp .L192
 1769               	.L176:
 1770               	.LM305:
 1771 0672 5523      		tst r21
 1772 0674 01F0      		breq .+2
 1773 0676 00C0      		rjmp .L177
 1774               	.LM306:
 1775 0678 1034      		cpi r17,lo8(64)
 1776 067a 00F4      		brsh .+2
 1777 067c 00C0      		rjmp .L178
 1778               	.LVL124:
 1779 067e 82E0      		ldi r24,lo8(2)
 1780 0680 8093 0000 		sts temp_side.1839,r24
 1781 0684 1054      		subi r17,lo8(-(-64))
 1782 0686 1093 0000 		sts temp_x.1840,r17
 1783               	.LVL125:
 1784               	.L179:
 1785               	.LM307:
 1786 068a 4695      		lsr r20
 1787 068c 4695      		lsr r20
 1788 068e 4695      		lsr r20
 1789               	.LVL126:
 1790 0690 87E0      		ldi r24,lo8(7)
 1791 0692 841B      		sub r24,r20
 1792 0694 8093 0000 		sts temp_page.1838,r24
 1793               	.LM308:
 1794 0698 27E0      		ldi r18,lo8(7)
 1795 069a 30E0      		ldi r19,hi8(7)
 1796 069c A901      		movw r20,r18
 1797               	.LVL127:
 1798 069e 4E1B      		sub r20,r30
 1799 06a0 5F0B      		sbc r21,r31
 1800 06a2 281B      		sub r18,r24
 1801 06a4 3109      		sbc r19,__zero_reg__
 1802 06a6 220F      		lsl r18
 1803 06a8 331F      		rol r19
 1804 06aa 220F      		lsl r18
 1805 06ac 331F      		rol r19
 1806 06ae 220F      		lsl r18
 1807 06b0 331F      		rol r19
 1808 06b2 420F      		add r20,r18
 1809 06b4 531F      		adc r21,r19
 1810 06b6 21E0      		ldi r18,lo8(1)
 1811 06b8 30E0      		ldi r19,hi8(1)
 1812 06ba 00C0      		rjmp 2f
 1813 06bc 220F      	1:	lsl r18
 1814 06be 331F      		rol r19
 1815 06c0 4A95      	2:	dec r20
 1816 06c2 02F4      		brpl 1b
 1817 06c4 122F      		mov r17,r18
 1818               	.LVL128:
 1819 06c6 2093 0000 		sts temp_data1.1841,r18
 1820               	.LM309:
 1821 06ca 0E94 0000 		call set_page
 1822               	.LVL129:
 1823               	.LM310:
 1824 06ce 0091 0000 		lds r16,temp_x.1840
 1825 06d2 802F      		mov r24,r16
 1826 06d4 0E94 0000 		call set_x
 1827               	.LM311:
 1828 06d8 E090 0000 		lds r14,temp_side.1839
 1829 06dc 802F      		mov r24,r16
 1830 06de 6E2D      		mov r22,r14
 1831 06e0 0E94 0000 		call read_byte
 1832 06e4 8093 0000 		sts temp_data2.1842,r24
 1833               	.LM312:
 1834 06e8 FF20      		tst r15
 1835 06ea 01F0      		breq .+2
 1836 06ec 00C0      		rjmp .L180
 1837               	.LM313:
 1838 06ee 1095      		com r17
 1839               	.LM314:
 1840 06f0 1823      		and r17,r24
 1841 06f2 1093 0000 		sts temp_data1.1841,r17
 1842               	.L181:
 1843               	.LM315:
 1844 06f6 802F      		mov r24,r16
 1845 06f8 0E94 0000 		call set_x
 1846               	.LM316:
 1847 06fc 8091 0000 		lds r24,temp_data1.1841
 1848 0700 6E2D      		mov r22,r14
 1849 0702 0E94 0000 		call write_byte
 1850               	.LVL130:
 1851               	.L186:
 1852               	/* epilogue start */
 1853               	.LM317:
 1854 0706 DF91      		pop r29
 1855               	.LVL131:
 1856 0708 CF91      		pop r28
 1857               	.LVL132:
 1858 070a 1F91      		pop r17
 1859               	.LVL133:
 1860 070c 0F91      		pop r16
 1861 070e FF90      		pop r15
 1862               	.LVL134:
 1863 0710 EF90      		pop r14
 1864 0712 0895      		ret
 1865               	.LVL135:
 1866               	.L177:
 1867               	.LM318:
 1868 0714 5130      		cpi r21,lo8(1)
 1869 0716 01F4      		brne .L186
 1870               	.LM319:
 1871 0718 8FE7      		ldi r24,lo8(127)
 1872 071a 90E0      		ldi r25,hi8(127)
 1873 071c 8E1B      		sub r24,r30
 1874 071e 9F0B      		sbc r25,r31
 1875 0720 880F      		lsl r24
 1876 0722 991F      		rol r25
 1877 0724 880F      		lsl r24
 1878 0726 991F      		rol r25
 1879               	.LVL136:
 1880 0728 EC01      		movw r28,r24
 1881               	.LVL137:
 1882 072a CC0F      		lsl r28
 1883 072c DD1F      		rol r29
 1884 072e CC0F      		lsl r28
 1885 0730 DD1F      		rol r29
 1886               	.LVL138:
 1887 0732 C80F      		add r28,r24
 1888 0734 D91F      		adc r29,r25
 1889 0736 812F      		mov r24,r17
 1890 0738 8695      		lsr r24
 1891 073a 8695      		lsr r24
 1892 073c 8695      		lsr r24
 1893 073e C80F      		add r28,r24
 1894 0740 D11D      		adc r29,__zero_reg__
 1895               	.L182:
 1896               	.LM320:
 1897 0742 80E0      		ldi r24,lo8(0)
 1898 0744 0E94 0000 		call read
 1899               	.LVL139:
 1900 0748 90E0      		ldi r25,lo8(0)
 1901 074a 8370      		andi r24,lo8(3)
 1902 074c 9070      		andi r25,hi8(3)
 1903 074e 892B      		or r24,r25
 1904 0750 01F0      		breq .L182
 1905               	.LM321:
 1906 0752 81E0      		ldi r24,lo8(1)
 1907 0754 6C2F      		mov r22,r28
 1908 0756 0E94 0000 		call write
 1909               	.L183:
 1910               	.LM322:
 1911 075a 80E0      		ldi r24,lo8(0)
 1912 075c 0E94 0000 		call read
 1913 0760 90E0      		ldi r25,lo8(0)
 1914 0762 8370      		andi r24,lo8(3)
 1915 0764 9070      		andi r25,hi8(3)
 1916 0766 892B      		or r24,r25
 1917 0768 01F0      		breq .L183
 1918               	.LM323:
 1919 076a 81E0      		ldi r24,lo8(1)
 1920 076c 6D2F      		mov r22,r29
 1921               	.LVL140:
 1922 076e 0E94 0000 		call write
 1923               	.L184:
 1924               	.LM324:
 1925 0772 80E0      		ldi r24,lo8(0)
 1926 0774 0E94 0000 		call read
 1927 0778 90E0      		ldi r25,lo8(0)
 1928 077a 8370      		andi r24,lo8(3)
 1929 077c 9070      		andi r25,hi8(3)
 1930 077e 892B      		or r24,r25
 1931 0780 01F0      		breq .L184
 1932               	.LM325:
 1933 0782 80E0      		ldi r24,lo8(0)
 1934 0784 64E2      		ldi r22,lo8(36)
 1935 0786 0E94 0000 		call write
 1936               	.LM326:
 1937 078a 1095      		com r17
 1938               	.LVL141:
 1939               	.LM327:
 1940 078c 186F      		ori r17,lo8(-8)
 1941               	.LM328:
 1942 078e FF20      		tst r15
 1943 0790 01F4      		brne .L187
 1944 0792 177F      		andi r17,lo8(-9)
 1945               	.L187:
 1946               	.LM329:
 1947 0794 80E0      		ldi r24,lo8(0)
 1948 0796 0E94 0000 		call read
 1949 079a 90E0      		ldi r25,lo8(0)
 1950 079c 8370      		andi r24,lo8(3)
 1951 079e 9070      		andi r25,hi8(3)
 1952 07a0 892B      		or r24,r25
 1953 07a2 01F0      		breq .L187
 1954               	.LM330:
 1955 07a4 80E0      		ldi r24,lo8(0)
 1956 07a6 612F      		mov r22,r17
 1957 07a8 0E94 0000 		call write
 1958 07ac 00C0      		rjmp .L186
 1959               	.LVL142:
 1960               	.L192:
 1961               	.LM331:
 1962 07ae F826      		eor r15,r24
 1963 07b0 00C0      		rjmp .L176
 1964               	.LVL143:
 1965               	.L180:
 1966               	.LM332:
 1967 07b2 182B      		or r17,r24
 1968 07b4 1093 0000 		sts temp_data1.1841,r17
 1969 07b8 00C0      		rjmp .L181
 1970               	.LVL144:
 1971               	.L178:
 1972               	.LM333:
 1973 07ba 81E0      		ldi r24,lo8(1)
 1974 07bc 8093 0000 		sts temp_side.1839,r24
 1975 07c0 1093 0000 		sts temp_x.1840,r17
 1976 07c4 00C0      		rjmp .L179
 1977               	.LFE20:
 1979               	.global	erase_block
 1981               	erase_block:
 1982               	.LFB30:
 1983               	.LM334:
 1984               	.LVL145:
 1985 07c6 DF92      		push r13
 1986 07c8 EF92      		push r14
 1987 07ca FF92      		push r15
 1988 07cc 0F93      		push r16
 1989 07ce 1F93      		push r17
 1990               	/* prologue: function */
 1991               	/* frame size = 0 */
 1992 07d0 E82E      		mov r14,r24
 1993 07d2 D62E      		mov r13,r22
 1994 07d4 F42E      		mov r15,r20
 1995 07d6 022F      		mov r16,r18
 1996               	.LM335:
 1997 07d8 2093 0000 		sts temp_y.2242,r18
 1998 07dc 2617      		cp r18,r22
 1999 07de 00F0      		brlo .L199
 2000               	.LVL146:
 2001               	.L200:
 2002               	.LM336:
 2003 07e0 FE14      		cp r15,r14
 2004 07e2 00F0      		brlo .L203
 2005 07e4 1E2D      		mov r17,r14
 2006               	.LVL147:
 2007               	.L197:
 2008               	.LM337:
 2009 07e6 80E0      		ldi r24,lo8(0)
 2010 07e8 612F      		mov r22,r17
 2011               	.LVL148:
 2012 07ea 402F      		mov r20,r16
 2013 07ec 0E94 0000 		call pixel
 2014               	.LVL149:
 2015               	.LM338:
 2016 07f0 1F5F      		subi r17,lo8(-(1))
 2017 07f2 F116      		cp r15,r17
 2018 07f4 00F4      		brsh .L197
 2019               	.LM339:
 2020 07f6 0150      		subi r16,lo8(-(-1))
 2021 07f8 0D15      		cp r16,r13
 2022 07fa 00F4      		brsh .L200
 2023               	.LVL150:
 2024               	.L204:
 2025 07fc 0093 0000 		sts temp_y.2242,r16
 2026 0800 1093 0000 		sts temp_x.2241,r17
 2027               	.LVL151:
 2028               	.L199:
 2029               	/* epilogue start */
 2030               	.LM340:
 2031 0804 1F91      		pop r17
 2032 0806 0F91      		pop r16
 2033               	.LVL152:
 2034 0808 FF90      		pop r15
 2035               	.LVL153:
 2036 080a EF90      		pop r14
 2037               	.LVL154:
 2038 080c DF90      		pop r13
 2039               	.LVL155:
 2040 080e 0895      		ret
 2041               	.LVL156:
 2042               	.L203:
 2043               	.LM341:
 2044 0810 1E2D      		mov r17,r14
 2045               	.LM342:
 2046 0812 0150      		subi r16,lo8(-(-1))
 2047 0814 0D15      		cp r16,r13
 2048 0816 00F4      		brsh .L200
 2049               	.LVL157:
 2050 0818 00C0      		rjmp .L204
 2051               	.LFE30:
 2053               	.global	del_char
 2055               	del_char:
 2056               	.LFB28:
 2057               	.LM343:
 2058               	.LVL158:
 2059 081a 0F93      		push r16
 2060 081c 1F93      		push r17
 2061               	/* prologue: function */
 2062               	/* frame size = 0 */
 2063               	.LM344:
 2064 081e 8823      		tst r24
 2065 0820 01F0      		breq .+2
 2066 0822 00C0      		rjmp .L218
 2067               	.LM345:
 2068 0824 4091 0000 		lds r20,x_offset
 2069 0828 4630      		cpi r20,lo8(6)
 2070 082a 00F4      		brsh .L207
 2071               	.LM346:
 2072 082c 8091 0000 		lds r24,display
 2073               	.LVL159:
 2074 0830 682F      		mov r22,r24
 2075 0832 70E0      		ldi r23,lo8(0)
 2076 0834 4858      		subi r20,lo8(-(120))
 2077 0836 CB01      		movw r24,r22
 2078 0838 880F      		lsl r24
 2079 083a 991F      		rol r25
 2080 083c 880F      		lsl r24
 2081 083e 991F      		rol r25
 2082 0840 9C01      		movw r18,r24
 2083 0842 220F      		lsl r18
 2084 0844 331F      		rol r19
 2085 0846 220F      		lsl r18
 2086 0848 331F      		rol r19
 2087 084a 220F      		lsl r18
 2088 084c 331F      		rol r19
 2089 084e 820F      		add r24,r18
 2090 0850 931F      		adc r25,r19
 2091 0852 480F      		add r20,r24
 2092 0854 4093 0000 		sts x_offset,r20
 2093               	.LM347:
 2094 0858 4091 0000 		lds r20,y_offset
 2095 085c 485F      		subi r20,lo8(-(8))
 2096 085e 4093 0000 		sts y_offset,r20
 2097               	.LM348:
 2098 0862 242F      		mov r18,r20
 2099 0864 30E0      		ldi r19,lo8(0)
 2100 0866 CB01      		movw r24,r22
 2101 0868 0024      		clr __tmp_reg__
 2102 086a 9695      		lsr r25
 2103 086c 8795      		ror r24
 2104 086e 0794      		ror __tmp_reg__
 2105 0870 9695      		lsr r25
 2106 0872 8795      		ror r24
 2107 0874 0794      		ror __tmp_reg__
 2108 0876 982F      		mov r25,r24
 2109 0878 802D      		mov r24,__tmp_reg__
 2110 087a CF96      		adiw r24,63
 2111 087c 8217      		cp r24,r18
 2112 087e 9307      		cpc r25,r19
 2113 0880 04F4      		brge .L206
 2114 0882 6095      		com r22
 2115 0884 7095      		com r23
 2116 0886 0024      		clr __tmp_reg__
 2117 0888 7695      		lsr r23
 2118 088a 6795      		ror r22
 2119 088c 0794      		ror __tmp_reg__
 2120 088e 7695      		lsr r23
 2121 0890 6795      		ror r22
 2122 0892 0794      		ror __tmp_reg__
 2123 0894 762F      		mov r23,r22
 2124 0896 602D      		mov r22,__tmp_reg__
 2125 0898 842F      		mov r24,r20
 2126 089a 860F      		add r24,r22
 2127 089c 8093 0000 		sts y_offset,r24
 2128 08a0 482F      		mov r20,r24
 2129 08a2 00C0      		rjmp .L206
 2130               	.LVL160:
 2131               	.L207:
 2132               	.LM349:
 2133 08a4 4650      		subi r20,lo8(-(-6))
 2134 08a6 4093 0000 		sts x_offset,r20
 2135               	.L218:
 2136 08aa 4091 0000 		lds r20,y_offset
 2137               	.L206:
 2138               	.LM350:
 2139 08ae 5091 0000 		lds r21,x_offset
 2140 08b2 052F      		mov r16,r21
 2141               	.LVL161:
 2142               	.L210:
 2143               	.LM351:
 2144 08b4 142F      		mov r17,r20
 2145 08b6 1750      		subi r17,lo8(-(-7))
 2146 08b8 4117      		cp r20,r17
 2147 08ba 00F0      		brlo .L208
 2148               	.L214:
 2149               	.LM352:
 2150 08bc 80E0      		ldi r24,lo8(0)
 2151               	.LVL162:
 2152 08be 602F      		mov r22,r16
 2153 08c0 412F      		mov r20,r17
 2154 08c2 0E94 0000 		call pixel
 2155               	.LVL163:
 2156               	.LM353:
 2157 08c6 1F5F      		subi r17,lo8(-(1))
 2158 08c8 4091 0000 		lds r20,y_offset
 2159 08cc 4117      		cp r20,r17
 2160 08ce 00F4      		brsh .L214
 2161 08d0 5091 0000 		lds r21,x_offset
 2162               	.LVL164:
 2163               	.L208:
 2164               	.LM354:
 2165 08d4 0F5F      		subi r16,lo8(-(1))
 2166 08d6 852F      		mov r24,r21
 2167               	.LVL165:
 2168 08d8 90E0      		ldi r25,lo8(0)
 2169 08da 0596      		adiw r24,5
 2170 08dc 202F      		mov r18,r16
 2171 08de 30E0      		ldi r19,lo8(0)
 2172 08e0 8217      		cp r24,r18
 2173 08e2 9307      		cpc r25,r19
 2174 08e4 04F4      		brge .L210
 2175               	.LVL166:
 2176               	.LM355:
 2177 08e6 8091 0000 		lds r24,display
 2178 08ea 8823      		tst r24
 2179 08ec 01F4      		brne .L212
 2180 08ee 60E0      		ldi r22,lo8(0)
 2181 08f0 40E0      		ldi r20,lo8(0)
 2182 08f2 0E94 0000 		call pixel
 2183               	.LVL167:
 2184               	.L212:
 2185               	/* epilogue start */
 2186               	.LM356:
 2187 08f6 1F91      		pop r17
 2188               	.LVL168:
 2189 08f8 0F91      		pop r16
 2190               	.LVL169:
 2191 08fa 0895      		ret
 2192               	.LFE28:
 2194               	.global	line
 2196               	line:
 2197               	.LFB21:
 2198               	.LM357:
 2199               	.LVL170:
 2200 08fc 2F92      		push r2
 2201 08fe 3F92      		push r3
 2202 0900 4F92      		push r4
 2203 0902 5F92      		push r5
 2204 0904 6F92      		push r6
 2205 0906 7F92      		push r7
 2206 0908 8F92      		push r8
 2207 090a 9F92      		push r9
 2208 090c AF92      		push r10
 2209 090e BF92      		push r11
 2210 0910 CF92      		push r12
 2211 0912 DF92      		push r13
 2212 0914 EF92      		push r14
 2213 0916 FF92      		push r15
 2214 0918 0F93      		push r16
 2215               	.LVL171:
 2216 091a 1F93      		push r17
 2217 091c DF93      		push r29
 2218 091e CF93      		push r28
 2219 0920 CDB7      		in r28,__SP_L__
 2220 0922 DEB7      		in r29,__SP_H__
 2221 0924 2B97      		sbiw r28,11
 2222 0926 0FB6      		in __tmp_reg__,__SREG__
 2223 0928 F894      		cli
 2224 092a DEBF      		out __SP_H__,r29
 2225 092c 0FBE      		out __SREG__,__tmp_reg__
 2226 092e CDBF      		out __SP_L__,r28
 2227               	/* prologue: function */
 2228               	/* frame size = 11 */
 2229 0930 8D83      		std Y+5,r24
 2230 0932 6E83      		std Y+6,r22
 2231 0934 4F83      		std Y+7,r20
 2232 0936 0887      		std Y+8,r16
 2233               	.LVL172:
 2234               	.LM358:
 2235 0938 A62E      		mov r10,r22
 2236 093a BB24      		clr r11
 2237 093c 3091 0000 		lds r19,display
 2238 0940 3987      		std Y+9,r19
 2239 0942 432F      		mov r20,r19
 2240               	.LVL173:
 2241 0944 50E0      		ldi r21,lo8(0)
 2242 0946 CA01      		movw r24,r20
 2243               	.LVL174:
 2244 0948 880F      		lsl r24
 2245 094a 991F      		rol r25
 2246 094c 8295      		swap r24
 2247 094e 9295      		swap r25
 2248 0950 907F      		andi r25,0xf0
 2249 0952 9827      		eor r25,r24
 2250 0954 807F      		andi r24,0xf0
 2251 0956 9827      		eor r25,r24
 2252 0958 8158      		subi r24,lo8(-(127))
 2253 095a 9F4F      		sbci r25,hi8(-(127))
 2254 095c 822E      		mov r8,r18
 2255 095e 9924      		clr r9
 2256 0960 8A15      		cp r24,r10
 2257 0962 9B05      		cpc r25,r11
 2258 0964 04F0      		brlt .L234
 2259               	.LVL175:
 2260 0966 8815      		cp r24,r8
 2261 0968 9905      		cpc r25,r9
 2262 096a 04F4      		brge .L241
 2263               	.LVL176:
 2264               	.L234:
 2265               	/* epilogue start */
 2266               	.LM359:
 2267 096c 2B96      		adiw r28,11
 2268 096e 0FB6      		in __tmp_reg__,__SREG__
 2269 0970 F894      		cli
 2270 0972 DEBF      		out __SP_H__,r29
 2271 0974 0FBE      		out __SREG__,__tmp_reg__
 2272 0976 CDBF      		out __SP_L__,r28
 2273 0978 CF91      		pop r28
 2274 097a DF91      		pop r29
 2275 097c 1F91      		pop r17
 2276 097e 0F91      		pop r16
 2277 0980 FF90      		pop r15
 2278 0982 EF90      		pop r14
 2279 0984 DF90      		pop r13
 2280 0986 CF90      		pop r12
 2281               	.LVL177:
 2282 0988 BF90      		pop r11
 2283 098a AF90      		pop r10
 2284 098c 9F90      		pop r9
 2285 098e 8F90      		pop r8
 2286 0990 7F90      		pop r7
 2287 0992 6F90      		pop r6
 2288 0994 5F90      		pop r5
 2289 0996 4F90      		pop r4
 2290               	.LVL178:
 2291 0998 3F90      		pop r3
 2292               	.LVL179:
 2293 099a 2F90      		pop r2
 2294               	.LVL180:
 2295 099c 0895      		ret
 2296               	.LVL181:
 2297               	.L241:
 2298               	.LM360:
 2299 099e 8F81      		ldd r24,Y+7
 2300 09a0 282E      		mov r2,r24
 2301               	.LVL182:
 2302 09a2 3324      		clr r3
 2303               	.LVL183:
 2304 09a4 CA01      		movw r24,r20
 2305 09a6 0024      		clr __tmp_reg__
 2306 09a8 9695      		lsr r25
 2307 09aa 8795      		ror r24
 2308 09ac 0794      		ror __tmp_reg__
 2309 09ae 9695      		lsr r25
 2310 09b0 8795      		ror r24
 2311 09b2 0794      		ror __tmp_reg__
 2312 09b4 982F      		mov r25,r24
 2313 09b6 802D      		mov r24,__tmp_reg__
 2314 09b8 CF96      		adiw r24,63
 2315 09ba E02F      		mov r30,r16
 2316 09bc F0E0      		ldi r31,lo8(0)
 2317 09be FC83      		std Y+4,r31
 2318 09c0 EB83      		std Y+3,r30
 2319 09c2 8215      		cp r24,r2
 2320 09c4 9305      		cpc r25,r3
 2321 09c6 04F0      		brlt .L234
 2322 09c8 8E17      		cp r24,r30
 2323 09ca 9F07      		cpc r25,r31
 2324 09cc 04F0      		brlt .L234
 2325               	.LM361:
 2326 09ce 9401      		movw r18,r8
 2327               	.LVL184:
 2328 09d0 2A19      		sub r18,r10
 2329 09d2 3B09      		sbc r19,r11
 2330 09d4 3A83      		std Y+2,r19
 2331 09d6 2983      		std Y+1,r18
 2332               	.LVL185:
 2333               	.LM362:
 2334 09d8 6F01      		movw r12,r30
 2335               	.LVL186:
 2336 09da C218      		sub r12,r2
 2337 09dc D308      		sbc r13,r3
 2338               	.LM363:
 2339 09de B601      		movw r22,r12
 2340 09e0 8827      		clr r24
 2341 09e2 77FD      		sbrc r23,7
 2342 09e4 8095      		com r24
 2343 09e6 982F      		mov r25,r24
 2344               	.LVL187:
 2345 09e8 0E94 0000 		call __floatsisf
 2346               	.LVL188:
 2347 09ec 7B01      		movw r14,r22
 2348 09ee 8C01      		movw r16,r24
 2349 09f0 4981      		ldd r20,Y+1
 2350 09f2 5A81      		ldd r21,Y+2
 2351 09f4 BA01      		movw r22,r20
 2352 09f6 8827      		clr r24
 2353 09f8 77FD      		sbrc r23,7
 2354 09fa 8095      		com r24
 2355 09fc 982F      		mov r25,r24
 2356               	.LVL189:
 2357 09fe 0E94 0000 		call __floatsisf
 2358               	.LVL190:
 2359 0a02 9B01      		movw r18,r22
 2360 0a04 AC01      		movw r20,r24
 2361 0a06 C801      		movw r24,r16
 2362 0a08 B701      		movw r22,r14
 2363 0a0a 0E94 0000 		call __divsf3
 2364 0a0e 2B01      		movw r4,r22
 2365 0a10 3C01      		movw r6,r24
 2366               	.LVL191:
 2367               	.LM364:
 2368 0a12 B101      		movw r22,r2
 2369 0a14 8827      		clr r24
 2370 0a16 77FD      		sbrc r23,7
 2371 0a18 8095      		com r24
 2372 0a1a 982F      		mov r25,r24
 2373               	.LVL192:
 2374 0a1c 0E94 0000 		call __floatsisf
 2375               	.LVL193:
 2376 0a20 7B01      		movw r14,r22
 2377 0a22 8C01      		movw r16,r24
 2378 0a24 B501      		movw r22,r10
 2379 0a26 8827      		clr r24
 2380 0a28 77FD      		sbrc r23,7
 2381 0a2a 8095      		com r24
 2382 0a2c 982F      		mov r25,r24
 2383               	.LVL194:
 2384 0a2e 0E94 0000 		call __floatsisf
 2385               	.LVL195:
 2386 0a32 A301      		movw r20,r6
 2387 0a34 9201      		movw r18,r4
 2388 0a36 0E94 0000 		call __mulsf3
 2389 0a3a 9B01      		movw r18,r22
 2390 0a3c AC01      		movw r20,r24
 2391 0a3e C801      		movw r24,r16
 2392 0a40 B701      		movw r22,r14
 2393 0a42 0E94 0000 		call __subsf3
 2394 0a46 0E94 0000 		call __fixsfsi
 2395 0a4a 9B01      		movw r18,r22
 2396               	.LVL196:
 2397               	.LM365:
 2398 0a4c C601      		movw r24,r12
 2399               	.LVL197:
 2400 0a4e D7FC      		sbrc r13,7
 2401 0a50 00C0      		rjmp .L242
 2402               	.LVL198:
 2403               	.L222:
 2404 0a52 E981      		ldd r30,Y+1
 2405 0a54 FA81      		ldd r31,Y+2
 2406               	.LVL199:
 2407 0a56 E817      		cp r30,r24
 2408 0a58 F907      		cpc r31,r25
 2409 0a5a 04F0      		brlt .+2
 2410 0a5c 00C0      		rjmp .L243
 2411               	.LM366:
 2412 0a5e 4F81      		ldd r20,Y+7
 2413 0a60 5885      		ldd r21,Y+8
 2414 0a62 4517      		cp r20,r21
 2415 0a64 00F0      		brlo .+2
 2416 0a66 00C0      		rjmp .L225
 2417               	.LVL200:
 2418               	.LM367:
 2419 0a68 8B81      		ldd r24,Y+3
 2420 0a6a 9C81      		ldd r25,Y+4
 2421               	.LVL201:
 2422 0a6c 8215      		cp r24,r2
 2423 0a6e 9305      		cpc r25,r3
 2424 0a70 04F4      		brge .+2
 2425 0a72 00C0      		rjmp .L223
 2426               	.LVL202:
 2427 0a74 4101      		movw r8,r2
 2428 0a76 821A      		sub r8,r18
 2429 0a78 930A      		sbc r9,r19
 2430 0a7a CC24      		clr r12
 2431 0a7c DD24      		clr r13
 2432               	.LVL203:
 2433 0a7e 00C0      		rjmp .L229
 2434               	.LVL204:
 2435               	.L244:
 2436               	.LM368:
 2437 0a80 BB86      		std Y+11,r11
 2438 0a82 AA86      		std Y+10,r10
 2439               	.LVL205:
 2440               	.L227:
 2441               	.LM369:
 2442 0a84 4F81      		ldd r20,Y+7
 2443 0a86 4C0D      		add r20,r12
 2444 0a88 8D81      		ldd r24,Y+5
 2445 0a8a 6A85      		ldd r22,Y+10
 2446 0a8c 0E94 0000 		call pixel
 2447               	.LVL206:
 2448 0a90 0894      		sec
 2449 0a92 C11C      		adc r12,__zero_reg__
 2450 0a94 D11C      		adc r13,__zero_reg__
 2451 0a96 0894      		sec
 2452 0a98 811C      		adc r8,__zero_reg__
 2453 0a9a 911C      		adc r9,__zero_reg__
 2454               	.LM370:
 2455 0a9c C601      		movw r24,r12
 2456 0a9e 820D      		add r24,r2
 2457 0aa0 931D      		adc r25,r3
 2458 0aa2 EB81      		ldd r30,Y+3
 2459 0aa4 FC81      		ldd r31,Y+4
 2460 0aa6 E817      		cp r30,r24
 2461 0aa8 F907      		cpc r31,r25
 2462 0aaa 04F4      		brge .+2
 2463 0aac 00C0      		rjmp .L240
 2464               	.LVL207:
 2465               	.L229:
 2466               	.LM371:
 2467 0aae E981      		ldd r30,Y+1
 2468 0ab0 FA81      		ldd r31,Y+2
 2469 0ab2 EF2B      		or r30,r31
 2470 0ab4 01F0      		breq .L244
 2471               	.LM372:
 2472 0ab6 B401      		movw r22,r8
 2473 0ab8 8827      		clr r24
 2474 0aba 77FD      		sbrc r23,7
 2475 0abc 8095      		com r24
 2476 0abe 982F      		mov r25,r24
 2477 0ac0 0E94 0000 		call __floatsisf
 2478               	.LVL208:
 2479 0ac4 A301      		movw r20,r6
 2480 0ac6 9201      		movw r18,r4
 2481 0ac8 0E94 0000 		call __divsf3
 2482 0acc 7B01      		movw r14,r22
 2483 0ace 8C01      		movw r16,r24
 2484               	.LBB246:
 2485               	.LBB247:
 2486               	.LM373:
 2487 0ad0 0E94 0000 		call __fixsfsi
 2488 0ad4 7B87      		std Y+11,r23
 2489 0ad6 6A87      		std Y+10,r22
 2490               	.LVL209:
 2491               	.LM374:
 2492 0ad8 9B01      		movw r18,r22
 2493 0ada B901      		movw r22,r18
 2494 0adc 8827      		clr r24
 2495 0ade 77FD      		sbrc r23,7
 2496 0ae0 8095      		com r24
 2497 0ae2 982F      		mov r25,r24
 2498               	.LVL210:
 2499 0ae4 0E94 0000 		call __floatsisf
 2500               	.LVL211:
 2501 0ae8 9B01      		movw r18,r22
 2502 0aea AC01      		movw r20,r24
 2503 0aec C801      		movw r24,r16
 2504 0aee B701      		movw r22,r14
 2505 0af0 0E94 0000 		call __subsf3
 2506 0af4 20E0      		ldi r18,lo8(0x3f000000)
 2507 0af6 30E0      		ldi r19,hi8(0x3f000000)
 2508 0af8 40E0      		ldi r20,hlo8(0x3f000000)
 2509 0afa 5FE3      		ldi r21,hhi8(0x3f000000)
 2510 0afc 0E94 0000 		call __gesf2
 2511 0b00 8823      		tst r24
 2512 0b02 04F4      		brge .+2
 2513 0b04 00C0      		rjmp .L227
 2514 0b06 4A85      		ldd r20,Y+10
 2515 0b08 5B85      		ldd r21,Y+11
 2516               	.LVL212:
 2517 0b0a 4F5F      		subi r20,lo8(-(1))
 2518 0b0c 5F4F      		sbci r21,hi8(-(1))
 2519 0b0e 5B87      		std Y+11,r21
 2520 0b10 4A87      		std Y+10,r20
 2521               	.LVL213:
 2522 0b12 00C0      		rjmp .L227
 2523               	.LVL214:
 2524               	.L243:
 2525               	.LBE247:
 2526               	.LBE246:
 2527               	.LM375:
 2528 0b14 8A14      		cp r8,r10
 2529 0b16 9B04      		cpc r9,r11
 2530 0b18 04F0      		brlt .L223
 2531 0b1a B901      		movw r22,r18
 2532 0b1c 8827      		clr r24
 2533 0b1e 77FD      		sbrc r23,7
 2534 0b20 8095      		com r24
 2535 0b22 982F      		mov r25,r24
 2536               	.LVL215:
 2537 0b24 0E94 0000 		call __floatsisf
 2538               	.LVL216:
 2539 0b28 6B01      		movw r12,r22
 2540 0b2a 7C01      		movw r14,r24
 2541               	.LVL217:
 2542 0b2c 2224      		clr r2
 2543 0b2e 3324      		clr r3
 2544               	.LVL218:
 2545               	.L224:
 2546               	.LM376:
 2547 0b30 1E81      		ldd r17,Y+6
 2548 0b32 120D      		add r17,r2
 2549 0b34 B101      		movw r22,r2
 2550 0b36 6A0D      		add r22,r10
 2551 0b38 7B1D      		adc r23,r11
 2552 0b3a 8827      		clr r24
 2553 0b3c 77FD      		sbrc r23,7
 2554 0b3e 8095      		com r24
 2555 0b40 982F      		mov r25,r24
 2556 0b42 0E94 0000 		call __floatsisf
 2557 0b46 A301      		movw r20,r6
 2558 0b48 9201      		movw r18,r4
 2559 0b4a 0E94 0000 		call __mulsf3
 2560 0b4e A701      		movw r20,r14
 2561 0b50 9601      		movw r18,r12
 2562 0b52 0E94 0000 		call __addsf3
 2563 0b56 0E94 0000 		call __fixunssfsi
 2564 0b5a 9B01      		movw r18,r22
 2565 0b5c AC01      		movw r20,r24
 2566 0b5e 8D81      		ldd r24,Y+5
 2567 0b60 612F      		mov r22,r17
 2568 0b62 422F      		mov r20,r18
 2569 0b64 0E94 0000 		call pixel
 2570 0b68 0894      		sec
 2571 0b6a 211C      		adc r2,__zero_reg__
 2572 0b6c 311C      		adc r3,__zero_reg__
 2573               	.LM377:
 2574 0b6e C501      		movw r24,r10
 2575 0b70 820D      		add r24,r2
 2576 0b72 931D      		adc r25,r3
 2577 0b74 8816      		cp r8,r24
 2578 0b76 9906      		cpc r9,r25
 2579 0b78 04F4      		brge .L224
 2580               	.LVL219:
 2581               	.L240:
 2582 0b7a F091 0000 		lds r31,display
 2583 0b7e F987      		std Y+9,r31
 2584               	.LVL220:
 2585               	.L223:
 2586               	.LM378:
 2587 0b80 2985      		ldd r18,Y+9
 2588               	.LVL221:
 2589 0b82 2223      		tst r18
 2590 0b84 01F0      		breq .+2
 2591 0b86 00C0      		rjmp .L234
 2592 0b88 80E0      		ldi r24,lo8(0)
 2593 0b8a 60E0      		ldi r22,lo8(0)
 2594 0b8c 40E0      		ldi r20,lo8(0)
 2595 0b8e 0E94 0000 		call pixel
 2596 0b92 00C0      		rjmp .L234
 2597               	.LVL222:
 2598               	.L225:
 2599               	.LM379:
 2600 0b94 4F81      		ldd r20,Y+7
 2601 0b96 5885      		ldd r21,Y+8
 2602 0b98 5417      		cp r21,r20
 2603 0b9a 00F4      		brsh .L223
 2604               	.LM380:
 2605 0b9c 8B81      		ldd r24,Y+3
 2606 0b9e 9C81      		ldd r25,Y+4
 2607               	.LVL223:
 2608 0ba0 2816      		cp r2,r24
 2609 0ba2 3906      		cpc r3,r25
 2610 0ba4 04F0      		brlt .L223
 2611               	.LVL224:
 2612 0ba6 4101      		movw r8,r2
 2613 0ba8 821A      		sub r8,r18
 2614 0baa 930A      		sbc r9,r19
 2615 0bac CC24      		clr r12
 2616 0bae DD24      		clr r13
 2617               	.LVL225:
 2618 0bb0 00C0      		rjmp .L233
 2619               	.LVL226:
 2620               	.L245:
 2621               	.LM381:
 2622 0bb2 BB86      		std Y+11,r11
 2623 0bb4 AA86      		std Y+10,r10
 2624               	.LVL227:
 2625               	.L231:
 2626               	.LM382:
 2627 0bb6 4F81      		ldd r20,Y+7
 2628 0bb8 4C19      		sub r20,r12
 2629 0bba 8D81      		ldd r24,Y+5
 2630 0bbc 6A85      		ldd r22,Y+10
 2631 0bbe 0E94 0000 		call pixel
 2632               	.LVL228:
 2633 0bc2 0894      		sec
 2634 0bc4 C11C      		adc r12,__zero_reg__
 2635 0bc6 D11C      		adc r13,__zero_reg__
 2636 0bc8 0894      		sec
 2637 0bca 8108      		sbc r8,__zero_reg__
 2638 0bcc 9108      		sbc r9,__zero_reg__
 2639               	.LM383:
 2640 0bce C101      		movw r24,r2
 2641 0bd0 8C19      		sub r24,r12
 2642 0bd2 9D09      		sbc r25,r13
 2643 0bd4 EB81      		ldd r30,Y+3
 2644 0bd6 FC81      		ldd r31,Y+4
 2645 0bd8 8E17      		cp r24,r30
 2646 0bda 9F07      		cpc r25,r31
 2647 0bdc 04F0      		brlt .L240
 2648               	.LVL229:
 2649               	.L233:
 2650               	.LM384:
 2651 0bde E981      		ldd r30,Y+1
 2652 0be0 FA81      		ldd r31,Y+2
 2653 0be2 EF2B      		or r30,r31
 2654 0be4 01F0      		breq .L245
 2655               	.LM385:
 2656 0be6 B401      		movw r22,r8
 2657 0be8 8827      		clr r24
 2658 0bea 77FD      		sbrc r23,7
 2659 0bec 8095      		com r24
 2660 0bee 982F      		mov r25,r24
 2661 0bf0 0E94 0000 		call __floatsisf
 2662               	.LVL230:
 2663 0bf4 A301      		movw r20,r6
 2664 0bf6 9201      		movw r18,r4
 2665 0bf8 0E94 0000 		call __divsf3
 2666 0bfc 7B01      		movw r14,r22
 2667 0bfe 8C01      		movw r16,r24
 2668               	.LBB248:
 2669               	.LBB249:
 2670               	.LM386:
 2671 0c00 0E94 0000 		call __fixsfsi
 2672 0c04 7B87      		std Y+11,r23
 2673 0c06 6A87      		std Y+10,r22
 2674               	.LVL231:
 2675               	.LM387:
 2676 0c08 9B01      		movw r18,r22
 2677 0c0a B901      		movw r22,r18
 2678 0c0c 8827      		clr r24
 2679 0c0e 77FD      		sbrc r23,7
 2680 0c10 8095      		com r24
 2681 0c12 982F      		mov r25,r24
 2682               	.LVL232:
 2683 0c14 0E94 0000 		call __floatsisf
 2684               	.LVL233:
 2685 0c18 9B01      		movw r18,r22
 2686 0c1a AC01      		movw r20,r24
 2687 0c1c C801      		movw r24,r16
 2688 0c1e B701      		movw r22,r14
 2689 0c20 0E94 0000 		call __subsf3
 2690 0c24 20E0      		ldi r18,lo8(0x3f000000)
 2691 0c26 30E0      		ldi r19,hi8(0x3f000000)
 2692 0c28 40E0      		ldi r20,hlo8(0x3f000000)
 2693 0c2a 5FE3      		ldi r21,hhi8(0x3f000000)
 2694 0c2c 0E94 0000 		call __gesf2
 2695 0c30 8823      		tst r24
 2696 0c32 04F0      		brlt .L231
 2697 0c34 4A85      		ldd r20,Y+10
 2698 0c36 5B85      		ldd r21,Y+11
 2699               	.LVL234:
 2700 0c38 4F5F      		subi r20,lo8(-(1))
 2701 0c3a 5F4F      		sbci r21,hi8(-(1))
 2702 0c3c 5B87      		std Y+11,r21
 2703 0c3e 4A87      		std Y+10,r20
 2704               	.LVL235:
 2705 0c40 00C0      		rjmp .L231
 2706               	.LVL236:
 2707               	.L242:
 2708               	.LBE249:
 2709               	.LBE248:
 2710               	.LM388:
 2711 0c42 9095      		com r25
 2712 0c44 8195      		neg r24
 2713 0c46 9F4F      		sbci r25,lo8(-1)
 2714               	.LVL237:
 2715 0c48 00C0      		rjmp .L222
 2716               	.LFE21:
 2718               	.global	box
 2720               	box:
 2721               	.LFB31:
 2722               	.LM389:
 2723               	.LVL238:
 2724 0c4a DF92      		push r13
 2725 0c4c EF92      		push r14
 2726 0c4e FF92      		push r15
 2727 0c50 0F93      		push r16
 2728 0c52 1F93      		push r17
 2729               	/* prologue: function */
 2730               	/* frame size = 0 */
 2731 0c54 F82E      		mov r15,r24
 2732 0c56 D62E      		mov r13,r22
 2733 0c58 E42E      		mov r14,r20
 2734 0c5a 122F      		mov r17,r18
 2735               	.LM390:
 2736 0c5c 81E0      		ldi r24,lo8(1)
 2737               	.LVL239:
 2738 0c5e 642F      		mov r22,r20
 2739               	.LVL240:
 2740 0c60 422F      		mov r20,r18
 2741               	.LVL241:
 2742 0c62 2E2D      		mov r18,r14
 2743               	.LVL242:
 2744 0c64 0D2D      		mov r16,r13
 2745 0c66 0E94 0000 		call line
 2746               	.LM391:
 2747 0c6a 81E0      		ldi r24,lo8(1)
 2748 0c6c 6F2D      		mov r22,r15
 2749 0c6e 412F      		mov r20,r17
 2750 0c70 2E2D      		mov r18,r14
 2751 0c72 012F      		mov r16,r17
 2752 0c74 0E94 0000 		call line
 2753               	.LM392:
 2754 0c78 81E0      		ldi r24,lo8(1)
 2755 0c7a 6F2D      		mov r22,r15
 2756 0c7c 412F      		mov r20,r17
 2757 0c7e 2F2D      		mov r18,r15
 2758 0c80 0D2D      		mov r16,r13
 2759 0c82 0E94 0000 		call line
 2760               	.LM393:
 2761 0c86 81E0      		ldi r24,lo8(1)
 2762 0c88 6F2D      		mov r22,r15
 2763 0c8a 4D2D      		mov r20,r13
 2764 0c8c 2E2D      		mov r18,r14
 2765 0c8e 0E94 0000 		call line
 2766               	/* epilogue start */
 2767               	.LM394:
 2768 0c92 1F91      		pop r17
 2769               	.LVL243:
 2770 0c94 0F91      		pop r16
 2771 0c96 FF90      		pop r15
 2772               	.LVL244:
 2773 0c98 EF90      		pop r14
 2774               	.LVL245:
 2775 0c9a DF90      		pop r13
 2776               	.LVL246:
 2777 0c9c 0895      		ret
 2778               	.LFE31:
 2780               	.global	print_char
 2782               	print_char:
 2783               	.LFB16:
 2784               	.LM395:
 2785               	.LVL247:
 2786 0c9e DF92      		push r13
 2787 0ca0 EF92      		push r14
 2788 0ca2 FF92      		push r15
 2789 0ca4 0F93      		push r16
 2790 0ca6 1F93      		push r17
 2791 0ca8 CF93      		push r28
 2792 0caa DF93      		push r29
 2793               	/* prologue: function */
 2794               	/* frame size = 0 */
 2795 0cac D82E      		mov r13,r24
 2796               	.LM396:
 2797 0cae 85E0      		ldi r24,lo8(5)
 2798               	.LVL248:
 2799 0cb0 689F      		mul r22,r24
 2800 0cb2 B001      		movw r22,r0
 2801 0cb4 1124      		clr r1
 2802               	.LVL249:
 2803 0cb6 EB01      		movw r28,r22
 2804 0cb8 C050      		subi r28,lo8(-(text_array-160))
 2805 0cba D040      		sbci r29,hi8(-(text_array-160))
 2806               	.LM397:
 2807 0cbc 00E0      		ldi r16,lo8(text_array-155)
 2808 0cbe E02E      		mov r14,r16
 2809 0cc0 00E0      		ldi r16,hi8(text_array-155)
 2810 0cc2 F02E      		mov r15,r16
 2811 0cc4 E60E      		add r14,r22
 2812 0cc6 F71E      		adc r15,r23
 2813               	.LVL250:
 2814               	.L252:
 2815               	.LM398:
 2816 0cc8 0881      		ld r16,Y
 2817 0cca 10E0      		ldi r17,lo8(0)
 2818 0ccc 00C0      		rjmp .L251
 2819               	.L249:
 2820               	.LM399:
 2821 0cce 1F5F      		subi r17,lo8(-(1))
 2822 0cd0 1830      		cpi r17,lo8(8)
 2823 0cd2 01F0      		breq .L250
 2824               	.L258:
 2825               	.LM400:
 2826 0cd4 000F      		lsl r16
 2827               	.L251:
 2828               	.LM401:
 2829 0cd6 07FF      		sbrs r16,7
 2830 0cd8 00C0      		rjmp .L249
 2831 0cda 4091 0000 		lds r20,y_offset
 2832 0cde 411B      		sub r20,r17
 2833 0ce0 8D2D      		mov r24,r13
 2834 0ce2 6091 0000 		lds r22,x_offset
 2835 0ce6 0E94 0000 		call pixel
 2836               	.LM402:
 2837 0cea 1F5F      		subi r17,lo8(-(1))
 2838 0cec 1830      		cpi r17,lo8(8)
 2839 0cee 01F4      		brne .L258
 2840               	.L250:
 2841               	.LM403:
 2842 0cf0 2091 0000 		lds r18,x_offset
 2843 0cf4 2F5F      		subi r18,lo8(-(1))
 2844 0cf6 2093 0000 		sts x_offset,r18
 2845 0cfa 2196      		adiw r28,1
 2846               	.LM404:
 2847 0cfc CE15      		cp r28,r14
 2848 0cfe DF05      		cpc r29,r15
 2849 0d00 01F4      		brne .L252
 2850               	.LM405:
 2851 0d02 2F5F      		subi r18,lo8(-(1))
 2852 0d04 2093 0000 		sts x_offset,r18
 2853               	.LM406:
 2854 0d08 6091 0000 		lds r22,display
 2855 0d0c 462F      		mov r20,r22
 2856 0d0e 50E0      		ldi r21,lo8(0)
 2857 0d10 30E0      		ldi r19,lo8(0)
 2858 0d12 CA01      		movw r24,r20
 2859 0d14 880F      		lsl r24
 2860 0d16 991F      		rol r25
 2861 0d18 8295      		swap r24
 2862 0d1a 9295      		swap r25
 2863 0d1c 907F      		andi r25,0xf0
 2864 0d1e 9827      		eor r25,r24
 2865 0d20 807F      		andi r24,0xf0
 2866 0d22 9827      		eor r25,r24
 2867               	.LVL251:
 2868 0d24 8758      		subi r24,lo8(-(121))
 2869 0d26 9F4F      		sbci r25,hi8(-(121))
 2870 0d28 8217      		cp r24,r18
 2871 0d2a 9307      		cpc r25,r19
 2872 0d2c 04F4      		brge .L253
 2873               	.LM407:
 2874 0d2e 1092 0000 		sts x_offset,__zero_reg__
 2875               	.LM408:
 2876 0d32 8091 0000 		lds r24,y_offset
 2877 0d36 8830      		cpi r24,lo8(8)
 2878 0d38 00F4      		brsh .L254
 2879               	.LM409:
 2880 0d3a 0024      		clr __tmp_reg__
 2881 0d3c 5695      		lsr r21
 2882 0d3e 4795      		ror r20
 2883 0d40 0794      		ror __tmp_reg__
 2884 0d42 5695      		lsr r21
 2885 0d44 4795      		ror r20
 2886 0d46 0794      		ror __tmp_reg__
 2887 0d48 542F      		mov r21,r20
 2888 0d4a 402D      		mov r20,__tmp_reg__
 2889 0d4c 842F      		mov r24,r20
 2890 0d4e 815C      		subi r24,lo8(-(63))
 2891 0d50 8093 0000 		sts y_offset,r24
 2892               	.L253:
 2893               	.LM410:
 2894 0d54 6623      		tst r22
 2895 0d56 01F4      		brne .L256
 2896 0d58 80E0      		ldi r24,lo8(0)
 2897 0d5a 40E0      		ldi r20,lo8(0)
 2898 0d5c 0E94 0000 		call pixel
 2899               	.L256:
 2900               	/* epilogue start */
 2901               	.LM411:
 2902 0d60 DF91      		pop r29
 2903 0d62 CF91      		pop r28
 2904 0d64 1F91      		pop r17
 2905 0d66 0F91      		pop r16
 2906               	.LVL252:
 2907 0d68 FF90      		pop r15
 2908 0d6a EF90      		pop r14
 2909 0d6c DF90      		pop r13
 2910               	.LVL253:
 2911 0d6e 0895      		ret
 2912               	.LVL254:
 2913               	.L254:
 2914               	.LM412:
 2915 0d70 8850      		subi r24,lo8(-(-8))
 2916 0d72 8093 0000 		sts y_offset,r24
 2917 0d76 00C0      		rjmp .L253
 2918               	.LFE16:
 2920               	.global	clear_screen
 2922               	clear_screen:
 2923               	.LFB14:
 2924               	.LM413:
 2925 0d78 CF93      		push r28
 2926 0d7a DF93      		push r29
 2927               	/* prologue: function */
 2928               	/* frame size = 0 */
 2929               	.LM414:
 2930 0d7c 8091 0000 		lds r24,display
 2931 0d80 8823      		tst r24
 2932 0d82 01F4      		brne .+2
 2933 0d84 00C0      		rjmp .L261
 2934               	.LM415:
 2935 0d86 8130      		cpi r24,lo8(1)
 2936 0d88 01F0      		breq .+2
 2937 0d8a 00C0      		rjmp .L288
 2938               	.L291:
 2939               	.LM416:
 2940 0d8c 80E0      		ldi r24,lo8(0)
 2941 0d8e 0E94 0000 		call read
 2942 0d92 90E0      		ldi r25,lo8(0)
 2943 0d94 8370      		andi r24,lo8(3)
 2944 0d96 9070      		andi r25,hi8(3)
 2945 0d98 892B      		or r24,r25
 2946 0d9a 01F0      		breq .L291
 2947               	.LM417:
 2948 0d9c 81E0      		ldi r24,lo8(1)
 2949 0d9e 60E0      		ldi r22,lo8(0)
 2950 0da0 0E94 0000 		call write
 2951               	.L283:
 2952               	.LM418:
 2953 0da4 80E0      		ldi r24,lo8(0)
 2954 0da6 0E94 0000 		call read
 2955 0daa 90E0      		ldi r25,lo8(0)
 2956 0dac 8370      		andi r24,lo8(3)
 2957 0dae 9070      		andi r25,hi8(3)
 2958 0db0 892B      		or r24,r25
 2959 0db2 01F0      		breq .L283
 2960               	.LM419:
 2961 0db4 81E0      		ldi r24,lo8(1)
 2962 0db6 60E0      		ldi r22,lo8(0)
 2963 0db8 0E94 0000 		call write
 2964               	.L284:
 2965               	.LM420:
 2966 0dbc 80E0      		ldi r24,lo8(0)
 2967 0dbe 0E94 0000 		call read
 2968 0dc2 90E0      		ldi r25,lo8(0)
 2969 0dc4 8370      		andi r24,lo8(3)
 2970 0dc6 9070      		andi r25,hi8(3)
 2971 0dc8 892B      		or r24,r25
 2972 0dca 01F0      		breq .L284
 2973               	.LM421:
 2974 0dcc 80E0      		ldi r24,lo8(0)
 2975 0dce 64E2      		ldi r22,lo8(36)
 2976 0dd0 0E94 0000 		call write
 2977 0dd4 C0E0      		ldi r28,lo8(0)
 2978 0dd6 D0E0      		ldi r29,hi8(0)
 2979               	.LVL255:
 2980               	.L314:
 2981               	.LM422:
 2982 0dd8 80E0      		ldi r24,lo8(0)
 2983 0dda 0E94 0000 		call read
 2984 0dde 90E0      		ldi r25,lo8(0)
 2985 0de0 8370      		andi r24,lo8(3)
 2986 0de2 9070      		andi r25,hi8(3)
 2987 0de4 892B      		or r24,r25
 2988 0de6 01F0      		breq .L314
 2989               	.LM423:
 2990 0de8 8091 0000 		lds r24,reverse
 2991 0dec 8130      		cpi r24,lo8(1)
 2992 0dee 01F4      		brne .+2
 2993 0df0 00C0      		rjmp .L316
 2994               	.LM424:
 2995 0df2 8823      		tst r24
 2996 0df4 01F4      		brne .+2
 2997 0df6 00C0      		rjmp .L317
 2998               	.L290:
 2999               	.LM425:
 3000 0df8 80E0      		ldi r24,lo8(0)
 3001 0dfa 0E94 0000 		call read
 3002 0dfe 90E0      		ldi r25,lo8(0)
 3003 0e00 8370      		andi r24,lo8(3)
 3004 0e02 9070      		andi r25,hi8(3)
 3005 0e04 892B      		or r24,r25
 3006 0e06 01F0      		breq .L290
 3007               	.LM426:
 3008 0e08 80E0      		ldi r24,lo8(0)
 3009 0e0a 60EC      		ldi r22,lo8(-64)
 3010 0e0c 0E94 0000 		call write
 3011               	.LM427:
 3012 0e10 2196      		adiw r28,1
 3013 0e12 8AE0      		ldi r24,hi8(2560)
 3014 0e14 C030      		cpi r28,lo8(2560)
 3015 0e16 D807      		cpc r29,r24
 3016 0e18 01F4      		brne .L314
 3017               	.LM428:
 3018 0e1a 1092 0000 		sts x_offset,__zero_reg__
 3019               	.LM429:
 3020 0e1e 8FE7      		ldi r24,lo8(127)
 3021 0e20 8093 0000 		sts y_offset,r24
 3022 0e24 00C0      		rjmp .L288
 3023               	.LVL256:
 3024               	.L261:
 3025               	.LBB250:
 3026               	.LBB251:
 3027               	.LM430:
 3028               	/* #APP */
 3029               	 ;  759 "main.c" 1
 3030 0e26 0000      		nop
 3031               	 ;  0 "" 2
 3032               	.LM431:
 3033               	/* #NOAPP */
 3034 0e28 8F5F      		subi r24,lo8(-(1))
 3035               	.LVL257:
 3036 0e2a 8E31      		cpi r24,lo8(30)
 3037 0e2c 01F4      		brne .L261
 3038               	.LBE251:
 3039               	.LBE250:
 3040               	.LM432:
 3041 0e2e 4091 0000 		lds r20,reverse
 3042 0e32 30E0      		ldi r19,lo8(0)
 3043               	.LVL258:
 3044               	.L280:
 3045               	.LM433:
 3046 0e34 88B1      		in r24,40-32
 3047               	.LVL259:
 3048 0e36 887F      		andi r24,lo8(-8)
 3049 0e38 88B9      		out 40-32,r24
 3050               	.LBB252:
 3051               	.LBB253:
 3052               	.LM434:
 3053 0e3a 85B1      		in r24,37-32
 3054 0e3c 8C7F      		andi r24,lo8(-4)
 3055 0e3e 85B9      		out 37-32,r24
 3056               	.LM435:
 3057 0e40 8BB1      		in r24,43-32
 3058 0e42 8370      		andi r24,lo8(3)
 3059 0e44 8BB9      		out 43-32,r24
 3060               	.LM436:
 3061 0e46 25B1      		in r18,37-32
 3062 0e48 932F      		mov r25,r19
 3063               	.LVL260:
 3064 0e4a 986B      		ori r25,lo8(-72)
 3065 0e4c 892F      		mov r24,r25
 3066 0e4e 8370      		andi r24,lo8(3)
 3067 0e50 822B      		or r24,r18
 3068 0e52 85B9      		out 37-32,r24
 3069               	.LM437:
 3070 0e54 8BB1      		in r24,43-32
 3071 0e56 9C7F      		andi r25,lo8(-4)
 3072 0e58 982B      		or r25,r24
 3073 0e5a 9BB9      		out 43-32,r25
 3074 0e5c 80E0      		ldi r24,lo8(0)
 3075               	.LVL261:
 3076               	.L262:
 3077               	.LBE253:
 3078               	.LBE252:
 3079               	.LBB254:
 3080               	.LBB255:
 3081               	.LM438:
 3082               	/* #APP */
 3083               	 ;  759 "main.c" 1
 3084 0e5e 0000      		nop
 3085               	 ;  0 "" 2
 3086               	.LM439:
 3087               	/* #NOAPP */
 3088 0e60 8F5F      		subi r24,lo8(-(1))
 3089 0e62 8E31      		cpi r24,lo8(30)
 3090 0e64 01F4      		brne .L262
 3091               	.LBE255:
 3092               	.LBE254:
 3093               	.LM440:
 3094 0e66 409A      		sbi 40-32,0
 3095 0e68 80E0      		ldi r24,lo8(0)
 3096               	.LVL262:
 3097               	.L263:
 3098               	.LBB256:
 3099               	.LBB257:
 3100               	.LM441:
 3101               	/* #APP */
 3102               	 ;  759 "main.c" 1
 3103 0e6a 0000      		nop
 3104               	 ;  0 "" 2
 3105               	.LM442:
 3106               	/* #NOAPP */
 3107 0e6c 8F5F      		subi r24,lo8(-(1))
 3108 0e6e 8E31      		cpi r24,lo8(30)
 3109 0e70 01F4      		brne .L263
 3110               	.LBE257:
 3111               	.LBE256:
 3112               	.LM443:
 3113 0e72 4098      		cbi 40-32,0
 3114 0e74 80E0      		ldi r24,lo8(0)
 3115               	.LVL263:
 3116               	.L264:
 3117               	.LBB258:
 3118               	.LBB259:
 3119               	.LM444:
 3120               	/* #APP */
 3121               	 ;  759 "main.c" 1
 3122 0e76 0000      		nop
 3123               	 ;  0 "" 2
 3124               	.LM445:
 3125               	/* #NOAPP */
 3126 0e78 8F5F      		subi r24,lo8(-(1))
 3127 0e7a 8E31      		cpi r24,lo8(30)
 3128 0e7c 01F4      		brne .L264
 3129               	.LBE259:
 3130               	.LBE258:
 3131               	.LM446:
 3132 0e7e 88B1      		in r24,40-32
 3133               	.LVL264:
 3134 0e80 8760      		ori r24,lo8(7)
 3135 0e82 88B9      		out 40-32,r24
 3136 0e84 80E0      		ldi r24,lo8(0)
 3137               	.LVL265:
 3138               	.L265:
 3139               	.LBB260:
 3140               	.LBB261:
 3141               	.LM447:
 3142               	/* #APP */
 3143               	 ;  759 "main.c" 1
 3144 0e86 0000      		nop
 3145               	 ;  0 "" 2
 3146               	.LM448:
 3147               	/* #NOAPP */
 3148 0e88 8F5F      		subi r24,lo8(-(1))
 3149 0e8a 8E31      		cpi r24,lo8(30)
 3150 0e8c 01F4      		brne .L265
 3151               	.LBE261:
 3152               	.LBE260:
 3153               	.LM449:
 3154 0e8e 88B1      		in r24,40-32
 3155               	.LVL266:
 3156 0e90 887F      		andi r24,lo8(-8)
 3157 0e92 88B9      		out 40-32,r24
 3158               	.LBB262:
 3159               	.LBB263:
 3160               	.LM450:
 3161 0e94 85B1      		in r24,37-32
 3162 0e96 8C7F      		andi r24,lo8(-4)
 3163 0e98 85B9      		out 37-32,r24
 3164               	.LM451:
 3165 0e9a 8BB1      		in r24,43-32
 3166 0e9c 8370      		andi r24,lo8(3)
 3167 0e9e 8BB9      		out 43-32,r24
 3168               	.LM452:
 3169 0ea0 85B1      		in r24,37-32
 3170 0ea2 85B9      		out 37-32,r24
 3171               	.LM453:
 3172 0ea4 5E9A      		sbi 43-32,6
 3173 0ea6 80E0      		ldi r24,lo8(0)
 3174               	.LVL267:
 3175               	.L266:
 3176               	.LBE263:
 3177               	.LBE262:
 3178               	.LBB264:
 3179               	.LBB265:
 3180               	.LM454:
 3181               	/* #APP */
 3182               	 ;  759 "main.c" 1
 3183 0ea8 0000      		nop
 3184               	 ;  0 "" 2
 3185               	.LM455:
 3186               	/* #NOAPP */
 3187 0eaa 8F5F      		subi r24,lo8(-(1))
 3188 0eac 8E31      		cpi r24,lo8(30)
 3189 0eae 01F4      		brne .L266
 3190               	.LBE265:
 3191               	.LBE264:
 3192               	.LM456:
 3193 0eb0 409A      		sbi 40-32,0
 3194 0eb2 80E0      		ldi r24,lo8(0)
 3195               	.LVL268:
 3196               	.L267:
 3197               	.LBB266:
 3198               	.LBB267:
 3199               	.LM457:
 3200               	/* #APP */
 3201               	 ;  759 "main.c" 1
 3202 0eb4 0000      		nop
 3203               	 ;  0 "" 2
 3204               	.LM458:
 3205               	/* #NOAPP */
 3206 0eb6 8F5F      		subi r24,lo8(-(1))
 3207 0eb8 8E31      		cpi r24,lo8(30)
 3208 0eba 01F4      		brne .L267
 3209               	.LBE267:
 3210               	.LBE266:
 3211               	.LM459:
 3212 0ebc 4098      		cbi 40-32,0
 3213 0ebe 80E0      		ldi r24,lo8(0)
 3214               	.LVL269:
 3215               	.L268:
 3216               	.LBB268:
 3217               	.LBB269:
 3218               	.LM460:
 3219               	/* #APP */
 3220               	 ;  759 "main.c" 1
 3221 0ec0 0000      		nop
 3222               	 ;  0 "" 2
 3223               	.LM461:
 3224               	/* #NOAPP */
 3225 0ec2 8F5F      		subi r24,lo8(-(1))
 3226 0ec4 8E31      		cpi r24,lo8(30)
 3227 0ec6 01F4      		brne .L268
 3228               	.LBE269:
 3229               	.LBE268:
 3230               	.LM462:
 3231 0ec8 88B1      		in r24,40-32
 3232               	.LVL270:
 3233 0eca 8760      		ori r24,lo8(7)
 3234 0ecc 88B9      		out 40-32,r24
 3235               	.LM463:
 3236 0ece 4130      		cpi r20,lo8(1)
 3237 0ed0 01F4      		brne .+2
 3238 0ed2 00C0      		rjmp .L318
 3239               	.LBB270:
 3240               	.LBB271:
 3241               	.LM464:
 3242 0ed4 85B1      		in r24,37-32
 3243 0ed6 8C7F      		andi r24,lo8(-4)
 3244 0ed8 85B9      		out 37-32,r24
 3245               	.LM465:
 3246 0eda 8BB1      		in r24,43-32
 3247 0edc 8370      		andi r24,lo8(3)
 3248 0ede 8BB9      		out 43-32,r24
 3249               	.LM466:
 3250 0ee0 85B1      		in r24,37-32
 3251 0ee2 85B9      		out 37-32,r24
 3252               	.LM467:
 3253 0ee4 8BB1      		in r24,43-32
 3254 0ee6 8BB9      		out 43-32,r24
 3255 0ee8 90E0      		ldi r25,lo8(0)
 3256               	.LVL271:
 3257               	.L315:
 3258               	.LBE271:
 3259               	.LBE270:
 3260               	.LM468:
 3261 0eea 80E0      		ldi r24,lo8(0)
 3262               	.LVL272:
 3263               	.L271:
 3264               	.LBB272:
 3265               	.LBB273:
 3266               	.LM469:
 3267               	/* #APP */
 3268               	 ;  759 "main.c" 1
 3269 0eec 0000      		nop
 3270               	 ;  0 "" 2
 3271               	.LM470:
 3272               	/* #NOAPP */
 3273 0eee 8F5F      		subi r24,lo8(-(1))
 3274 0ef0 8E31      		cpi r24,lo8(30)
 3275 0ef2 01F4      		brne .L271
 3276               	.LBE273:
 3277               	.LBE272:
 3278               	.LM471:
 3279 0ef4 88B1      		in r24,40-32
 3280               	.LVL273:
 3281 0ef6 8A7E      		andi r24,lo8(-22)
 3282 0ef8 88B9      		out 40-32,r24
 3283 0efa 80E0      		ldi r24,lo8(0)
 3284               	.LVL274:
 3285               	.L272:
 3286               	.LBB274:
 3287               	.LBB275:
 3288               	.LM472:
 3289               	/* #APP */
 3290               	 ;  759 "main.c" 1
 3291 0efc 0000      		nop
 3292               	 ;  0 "" 2
 3293               	.LM473:
 3294               	/* #NOAPP */
 3295 0efe 8F5F      		subi r24,lo8(-(1))
 3296 0f00 8E31      		cpi r24,lo8(30)
 3297 0f02 01F4      		brne .L272
 3298               	.LBE275:
 3299               	.LBE274:
 3300               	.LM474:
 3301 0f04 409A      		sbi 40-32,0
 3302 0f06 80E0      		ldi r24,lo8(0)
 3303               	.LVL275:
 3304               	.L273:
 3305               	.LBB276:
 3306               	.LBB277:
 3307               	.LM475:
 3308               	/* #APP */
 3309               	 ;  759 "main.c" 1
 3310 0f08 0000      		nop
 3311               	 ;  0 "" 2
 3312               	.LM476:
 3313               	/* #NOAPP */
 3314 0f0a 8F5F      		subi r24,lo8(-(1))
 3315 0f0c 8E31      		cpi r24,lo8(30)
 3316 0f0e 01F4      		brne .L273
 3317               	.LBE277:
 3318               	.LBE276:
 3319               	.LM477:
 3320 0f10 4098      		cbi 40-32,0
 3321 0f12 80E0      		ldi r24,lo8(0)
 3322               	.LVL276:
 3323               	.L274:
 3324               	.LBB278:
 3325               	.LBB279:
 3326               	.LM478:
 3327               	/* #APP */
 3328               	 ;  759 "main.c" 1
 3329 0f14 0000      		nop
 3330               	 ;  0 "" 2
 3331               	.LM479:
 3332               	/* #NOAPP */
 3333 0f16 8F5F      		subi r24,lo8(-(1))
 3334 0f18 8E31      		cpi r24,lo8(30)
 3335 0f1a 01F4      		brne .L274
 3336               	.LBE279:
 3337               	.LBE278:
 3338               	.LM480:
 3339 0f1c 88B1      		in r24,40-32
 3340               	.LVL277:
 3341 0f1e 8561      		ori r24,lo8(21)
 3342 0f20 88B9      		out 40-32,r24
 3343 0f22 80E0      		ldi r24,lo8(0)
 3344               	.LVL278:
 3345               	.L275:
 3346               	.LBB280:
 3347               	.LBB281:
 3348               	.LM481:
 3349               	/* #APP */
 3350               	 ;  759 "main.c" 1
 3351 0f24 0000      		nop
 3352               	 ;  0 "" 2
 3353               	.LM482:
 3354               	/* #NOAPP */
 3355 0f26 8F5F      		subi r24,lo8(-(1))
 3356 0f28 8E31      		cpi r24,lo8(30)
 3357 0f2a 01F4      		brne .L275
 3358               	.LBE281:
 3359               	.LBE280:
 3360               	.LM483:
 3361 0f2c 88B1      		in r24,40-32
 3362               	.LVL279:
 3363 0f2e 8A7D      		andi r24,lo8(-38)
 3364 0f30 88B9      		out 40-32,r24
 3365 0f32 80E0      		ldi r24,lo8(0)
 3366               	.LVL280:
 3367               	.L276:
 3368               	.LBB282:
 3369               	.LBB283:
 3370               	.LM484:
 3371               	/* #APP */
 3372               	 ;  759 "main.c" 1
 3373 0f34 0000      		nop
 3374               	 ;  0 "" 2
 3375               	.LM485:
 3376               	/* #NOAPP */
 3377 0f36 8F5F      		subi r24,lo8(-(1))
 3378 0f38 8E31      		cpi r24,lo8(30)
 3379 0f3a 01F4      		brne .L276
 3380               	.LBE283:
 3381               	.LBE282:
 3382               	.LM486:
 3383 0f3c 409A      		sbi 40-32,0
 3384 0f3e 80E0      		ldi r24,lo8(0)
 3385               	.LVL281:
 3386               	.L277:
 3387               	.LBB284:
 3388               	.LBB285:
 3389               	.LM487:
 3390               	/* #APP */
 3391               	 ;  759 "main.c" 1
 3392 0f40 0000      		nop
 3393               	 ;  0 "" 2
 3394               	.LM488:
 3395               	/* #NOAPP */
 3396 0f42 8F5F      		subi r24,lo8(-(1))
 3397 0f44 8E31      		cpi r24,lo8(30)
 3398 0f46 01F4      		brne .L277
 3399               	.LBE285:
 3400               	.LBE284:
 3401               	.LM489:
 3402 0f48 4098      		cbi 40-32,0
 3403 0f4a 80E0      		ldi r24,lo8(0)
 3404               	.LVL282:
 3405               	.L278:
 3406               	.LBB286:
 3407               	.LBB287:
 3408               	.LM490:
 3409               	/* #APP */
 3410               	 ;  759 "main.c" 1
 3411 0f4c 0000      		nop
 3412               	 ;  0 "" 2
 3413               	.LM491:
 3414               	/* #NOAPP */
 3415 0f4e 8F5F      		subi r24,lo8(-(1))
 3416 0f50 8E31      		cpi r24,lo8(30)
 3417 0f52 01F4      		brne .L278
 3418               	.LBE287:
 3419               	.LBE286:
 3420               	.LM492:
 3421 0f54 88B1      		in r24,40-32
 3422               	.LVL283:
 3423 0f56 8562      		ori r24,lo8(37)
 3424 0f58 88B9      		out 40-32,r24
 3425               	.LM493:
 3426 0f5a 9F5F      		subi r25,lo8(-(1))
 3427 0f5c 9034      		cpi r25,lo8(64)
 3428 0f5e 01F0      		breq .+2
 3429 0f60 00C0      		rjmp .L315
 3430               	.LM494:
 3431 0f62 3F5F      		subi r19,lo8(-(1))
 3432 0f64 3830      		cpi r19,lo8(8)
 3433 0f66 01F0      		breq .+2
 3434 0f68 00C0      		rjmp .L280
 3435               	.LM495:
 3436 0f6a 1092 0000 		sts x_offset,__zero_reg__
 3437               	.LM496:
 3438 0f6e 8FE3      		ldi r24,lo8(63)
 3439 0f70 8093 0000 		sts y_offset,r24
 3440               	.LVL284:
 3441               	.L288:
 3442               	/* epilogue start */
 3443               	.LM497:
 3444 0f74 DF91      		pop r29
 3445 0f76 CF91      		pop r28
 3446               	.LVL285:
 3447 0f78 0895      		ret
 3448               	.LVL286:
 3449               	.L318:
 3450               	.LBB288:
 3451               	.LBB289:
 3452               	.LM498:
 3453 0f7a 85B1      		in r24,37-32
 3454 0f7c 8C7F      		andi r24,lo8(-4)
 3455 0f7e 85B9      		out 37-32,r24
 3456               	.LM499:
 3457 0f80 8BB1      		in r24,43-32
 3458 0f82 8370      		andi r24,lo8(3)
 3459 0f84 8BB9      		out 43-32,r24
 3460               	.LM500:
 3461 0f86 85B1      		in r24,37-32
 3462 0f88 8360      		ori r24,lo8(3)
 3463 0f8a 85B9      		out 37-32,r24
 3464               	.LM501:
 3465 0f8c 8BB1      		in r24,43-32
 3466 0f8e 8C6F      		ori r24,lo8(-4)
 3467 0f90 8BB9      		out 43-32,r24
 3468 0f92 90E0      		ldi r25,lo8(0)
 3469               	.LVL287:
 3470 0f94 00C0      		rjmp .L315
 3471               	.LVL288:
 3472               	.L317:
 3473               	.LBE289:
 3474               	.LBE288:
 3475               	.LM502:
 3476 0f96 81E0      		ldi r24,lo8(1)
 3477 0f98 60E0      		ldi r22,lo8(0)
 3478 0f9a 0E94 0000 		call write
 3479 0f9e 00C0      		rjmp .L290
 3480               	.L316:
 3481               	.LM503:
 3482 0fa0 6FEF      		ldi r22,lo8(-1)
 3483 0fa2 0E94 0000 		call write
 3484 0fa6 00C0      		rjmp .L290
 3485               	.LFE14:
 3487               	.global	display_init
 3489               	display_init:
 3490               	.LFB35:
 3491               	.LM504:
 3492               	/* prologue: function */
 3493               	/* frame size = 0 */
 3494               	.L320:
 3495               	.LM505:
 3496 0fa8 80E0      		ldi r24,lo8(0)
 3497 0faa 0E94 0000 		call read
 3498 0fae 90E0      		ldi r25,lo8(0)
 3499 0fb0 8370      		andi r24,lo8(3)
 3500 0fb2 9070      		andi r25,hi8(3)
 3501 0fb4 892B      		or r24,r25
 3502 0fb6 01F0      		breq .L320
 3503               	.LM506:
 3504 0fb8 81E0      		ldi r24,lo8(1)
 3505 0fba 60E0      		ldi r22,lo8(0)
 3506 0fbc 0E94 0000 		call write
 3507               	.L321:
 3508               	.LM507:
 3509 0fc0 80E0      		ldi r24,lo8(0)
 3510 0fc2 0E94 0000 		call read
 3511 0fc6 90E0      		ldi r25,lo8(0)
 3512 0fc8 8370      		andi r24,lo8(3)
 3513 0fca 9070      		andi r25,hi8(3)
 3514 0fcc 892B      		or r24,r25
 3515 0fce 01F0      		breq .L321
 3516               	.LM508:
 3517 0fd0 81E0      		ldi r24,lo8(1)
 3518 0fd2 60E0      		ldi r22,lo8(0)
 3519 0fd4 0E94 0000 		call write
 3520               	.L322:
 3521               	.LM509:
 3522 0fd8 80E0      		ldi r24,lo8(0)
 3523 0fda 0E94 0000 		call read
 3524 0fde 90E0      		ldi r25,lo8(0)
 3525 0fe0 8370      		andi r24,lo8(3)
 3526 0fe2 9070      		andi r25,hi8(3)
 3527 0fe4 892B      		or r24,r25
 3528 0fe6 01F0      		breq .L322
 3529               	.LM510:
 3530 0fe8 80E0      		ldi r24,lo8(0)
 3531 0fea 62E4      		ldi r22,lo8(66)
 3532 0fec 0E94 0000 		call write
 3533               	.L323:
 3534               	.LM511:
 3535 0ff0 80E0      		ldi r24,lo8(0)
 3536 0ff2 0E94 0000 		call read
 3537 0ff6 90E0      		ldi r25,lo8(0)
 3538 0ff8 8370      		andi r24,lo8(3)
 3539 0ffa 9070      		andi r25,hi8(3)
 3540 0ffc 892B      		or r24,r25
 3541 0ffe 01F0      		breq .L323
 3542               	.LM512:
 3543 1000 81E0      		ldi r24,lo8(1)
 3544 1002 64E1      		ldi r22,lo8(20)
 3545 1004 0E94 0000 		call write
 3546               	.L324:
 3547               	.LM513:
 3548 1008 80E0      		ldi r24,lo8(0)
 3549 100a 0E94 0000 		call read
 3550 100e 90E0      		ldi r25,lo8(0)
 3551 1010 8370      		andi r24,lo8(3)
 3552 1012 9070      		andi r25,hi8(3)
 3553 1014 892B      		or r24,r25
 3554 1016 01F0      		breq .L324
 3555               	.LM514:
 3556 1018 81E0      		ldi r24,lo8(1)
 3557 101a 60E0      		ldi r22,lo8(0)
 3558 101c 0E94 0000 		call write
 3559               	.L325:
 3560               	.LM515:
 3561 1020 80E0      		ldi r24,lo8(0)
 3562 1022 0E94 0000 		call read
 3563 1026 90E0      		ldi r25,lo8(0)
 3564 1028 8370      		andi r24,lo8(3)
 3565 102a 9070      		andi r25,hi8(3)
 3566 102c 892B      		or r24,r25
 3567 102e 01F0      		breq .L325
 3568               	.LM516:
 3569 1030 80E0      		ldi r24,lo8(0)
 3570 1032 63E4      		ldi r22,lo8(67)
 3571 1034 0E94 0000 		call write
 3572               	.L326:
 3573               	.LM517:
 3574 1038 80E0      		ldi r24,lo8(0)
 3575 103a 0E94 0000 		call read
 3576 103e 90E0      		ldi r25,lo8(0)
 3577 1040 8370      		andi r24,lo8(3)
 3578 1042 9070      		andi r25,hi8(3)
 3579 1044 892B      		or r24,r25
 3580 1046 01F0      		breq .L326
 3581               	.LM518:
 3582 1048 80E0      		ldi r24,lo8(0)
 3583 104a 60E8      		ldi r22,lo8(-128)
 3584 104c 0E94 0000 		call write
 3585               	.L327:
 3586               	.LM519:
 3587 1050 80E0      		ldi r24,lo8(0)
 3588 1052 0E94 0000 		call read
 3589 1056 90E0      		ldi r25,lo8(0)
 3590 1058 8370      		andi r24,lo8(3)
 3591 105a 9070      		andi r25,hi8(3)
 3592 105c 892B      		or r24,r25
 3593 105e 01F0      		breq .L327
 3594               	.LM520:
 3595 1060 80E0      		ldi r24,lo8(0)
 3596 1062 68E9      		ldi r22,lo8(-104)
 3597 1064 0E94 0000 		call write
 3598               	/* epilogue start */
 3599               	.LM521:
 3600 1068 0895      		ret
 3601               	.LFE35:
 3603               	.global	circle
 3605               	circle:
 3606               	.LFB24:
 3607               	.LM522:
 3608               	.LVL289:
 3609 106a 2F92      		push r2
 3610 106c 3F92      		push r3
 3611 106e 4F92      		push r4
 3612 1070 5F92      		push r5
 3613 1072 6F92      		push r6
 3614 1074 7F92      		push r7
 3615 1076 8F92      		push r8
 3616 1078 9F92      		push r9
 3617 107a AF92      		push r10
 3618 107c BF92      		push r11
 3619 107e CF92      		push r12
 3620 1080 DF92      		push r13
 3621 1082 EF92      		push r14
 3622 1084 FF92      		push r15
 3623 1086 0F93      		push r16
 3624 1088 1F93      		push r17
 3625 108a DF93      		push r29
 3626 108c CF93      		push r28
 3627 108e CDB7      		in r28,__SP_L__
 3628 1090 DEB7      		in r29,__SP_H__
 3629 1092 2C97      		sbiw r28,12
 3630 1094 0FB6      		in __tmp_reg__,__SREG__
 3631 1096 F894      		cli
 3632 1098 DEBF      		out __SP_H__,r29
 3633 109a 0FBE      		out __SREG__,__tmp_reg__
 3634 109c CDBF      		out __SP_L__,r28
 3635               	/* prologue: function */
 3636               	/* frame size = 12 */
 3637 109e E82E      		mov r14,r24
 3638 10a0 6B01      		movw r12,r22
 3639 10a2 8A01      		movw r16,r20
 3640               	.LM523:
 3641 10a4 1B01      		movw r2,r22
 3642               	.LVL290:
 3643 10a6 221A      		sub r2,r18
 3644 10a8 330A      		sbc r3,r19
 3645               	.LM524:
 3646 10aa C901      		movw r24,r18
 3647               	.LVL291:
 3648 10ac 860F      		add r24,r22
 3649 10ae 971F      		adc r25,r23
 3650 10b0 9887      		std Y+8,r25
 3651 10b2 8F83      		std Y+7,r24
 3652               	.LVL292:
 3653               	.LM525:
 3654 10b4 8215      		cp r24,r2
 3655 10b6 9305      		cpc r25,r3
 3656 10b8 04F4      		brge .+2
 3657 10ba 00C0      		rjmp .L338
 3658               	.LVL293:
 3659 10bc 229F      		mul r18,r18
 3660 10be F001      		movw r30,r0
 3661 10c0 239F      		mul r18,r19
 3662 10c2 F00D      		add r31,r0
 3663 10c4 329F      		mul r19,r18
 3664 10c6 F00D      		add r31,r0
 3665 10c8 1124      		clr r1
 3666 10ca FE83      		std Y+6,r31
 3667 10cc ED83      		std Y+5,r30
 3668 10ce BA01      		movw r22,r20
 3669 10d0 8827      		clr r24
 3670 10d2 77FD      		sbrc r23,7
 3671 10d4 8095      		com r24
 3672 10d6 982F      		mov r25,r24
 3673               	.LVL294:
 3674 10d8 0E94 0000 		call __floatsisf
 3675               	.LVL295:
 3676 10dc 6983      		std Y+1,r22
 3677 10de 7A83      		std Y+2,r23
 3678 10e0 8B83      		std Y+3,r24
 3679 10e2 9C83      		std Y+4,r25
 3680               	.LM526:
 3681 10e4 F02F      		mov r31,r16
 3682 10e6 FF0F      		lsl r31
 3683 10e8 F987      		std Y+9,r31
 3684 10ea 2601      		movw r4,r12
 3685 10ec 4218      		sub r4,r2
 3686 10ee 5308      		sbc r5,r3
 3687 10f0 3101      		movw r6,r2
 3688 10f2 6C18      		sub r6,r12
 3689 10f4 7D08      		sbc r7,r13
 3690 10f6 3C86      		std Y+12,r3
 3691 10f8 2B86      		std Y+11,r2
 3692               	.LVL296:
 3693 10fa 8824      		clr r8
 3694 10fc 9924      		clr r9
 3695               	.LVL297:
 3696 10fe AA24      		clr r10
 3697 1100 BB24      		clr r11
 3698               	.LVL298:
 3699               	.LM527:
 3700 1102 FA87      		std Y+10,r31
 3701 1104 00C0      		rjmp .L341
 3702               	.LVL299:
 3703               	.L344:
 3704               	.LM528:
 3705 1106 8E2D      		mov r24,r14
 3706 1108 682D      		mov r22,r8
 3707 110a 4A2D      		mov r20,r10
 3708 110c 2B85      		ldd r18,Y+11
 3709 110e 0C2D      		mov r16,r12
 3710 1110 0E94 0000 		call line
 3711               	.LM529:
 3712 1114 4985      		ldd r20,Y+9
 3713 1116 4A19      		sub r20,r10
 3714               	.LVL300:
 3715 1118 0985      		ldd r16,Y+9
 3716 111a 0C19      		sub r16,r12
 3717               	.LVL301:
 3718 111c 8E2D      		mov r24,r14
 3719 111e 682D      		mov r22,r8
 3720 1120 2B85      		ldd r18,Y+11
 3721 1122 0E94 0000 		call line
 3722               	.LVL302:
 3723               	.L340:
 3724               	.LM530:
 3725 1126 8B85      		ldd r24,Y+11
 3726 1128 9C85      		ldd r25,Y+12
 3727 112a 0196      		adiw r24,1
 3728               	.LVL303:
 3729 112c 0894      		sec
 3730 112e 4108      		sbc r4,__zero_reg__
 3731 1130 5108      		sbc r5,__zero_reg__
 3732 1132 0894      		sec
 3733 1134 611C      		adc r6,__zero_reg__
 3734 1136 711C      		adc r7,__zero_reg__
 3735 1138 5601      		movw r10,r12
 3736               	.LVL304:
 3737 113a 8B84      		ldd r8,Y+11
 3738 113c 9C84      		ldd r9,Y+12
 3739 113e 2F81      		ldd r18,Y+7
 3740 1140 3885      		ldd r19,Y+8
 3741 1142 2817      		cp r18,r24
 3742 1144 3907      		cpc r19,r25
 3743 1146 04F0      		brlt .L338
 3744 1148 9C87      		std Y+12,r25
 3745 114a 8B87      		std Y+11,r24
 3746               	.LVL305:
 3747               	.L341:
 3748               	.LM531:
 3749 114c 469C      		mul r4,r6
 3750 114e B001      		movw r22,r0
 3751 1150 479C      		mul r4,r7
 3752 1152 700D      		add r23,r0
 3753 1154 569C      		mul r5,r6
 3754 1156 700D      		add r23,r0
 3755 1158 1124      		clr r1
 3756 115a 8D81      		ldd r24,Y+5
 3757 115c 9E81      		ldd r25,Y+6
 3758 115e 680F      		add r22,r24
 3759 1160 791F      		adc r23,r25
 3760 1162 8827      		clr r24
 3761 1164 77FD      		sbrc r23,7
 3762 1166 8095      		com r24
 3763 1168 982F      		mov r25,r24
 3764 116a 0E94 0000 		call __floatsisf
 3765 116e 0E94 0000 		call sqrt
 3766 1172 2981      		ldd r18,Y+1
 3767 1174 3A81      		ldd r19,Y+2
 3768 1176 4B81      		ldd r20,Y+3
 3769 1178 5C81      		ldd r21,Y+4
 3770 117a 0E94 0000 		call __subsf3
 3771 117e 0E94 0000 		call __fixsfsi
 3772               	.LM532:
 3773 1182 CC24      		clr r12
 3774 1184 DD24      		clr r13
 3775 1186 C61A      		sub r12,r22
 3776 1188 D70A      		sbc r13,r23
 3777               	.LVL306:
 3778               	.LM533:
 3779 118a EB85      		ldd r30,Y+11
 3780 118c FC85      		ldd r31,Y+12
 3781 118e 2E16      		cp r2,r30
 3782 1190 3F06      		cpc r3,r31
 3783 1192 04F4      		brge .+2
 3784 1194 00C0      		rjmp .L344
 3785               	.LM534:
 3786 1196 8E2D      		mov r24,r14
 3787 1198 6B85      		ldd r22,Y+11
 3788 119a 4C2D      		mov r20,r12
 3789 119c 0E94 0000 		call pixel
 3790               	.LM535:
 3791 11a0 4A85      		ldd r20,Y+10
 3792 11a2 4C19      		sub r20,r12
 3793               	.LVL307:
 3794 11a4 8E2D      		mov r24,r14
 3795 11a6 6B85      		ldd r22,Y+11
 3796 11a8 0E94 0000 		call pixel
 3797 11ac 00C0      		rjmp .L340
 3798               	.LVL308:
 3799               	.L338:
 3800               	.LM536:
 3801 11ae 8091 0000 		lds r24,display
 3802               	.LVL309:
 3803 11b2 8823      		tst r24
 3804 11b4 01F4      		brne .L343
 3805 11b6 60E0      		ldi r22,lo8(0)
 3806               	.LVL310:
 3807 11b8 40E0      		ldi r20,lo8(0)
 3808 11ba 0E94 0000 		call pixel
 3809               	.LVL311:
 3810               	.L343:
 3811               	/* epilogue start */
 3812               	.LM537:
 3813 11be 2C96      		adiw r28,12
 3814 11c0 0FB6      		in __tmp_reg__,__SREG__
 3815 11c2 F894      		cli
 3816 11c4 DEBF      		out __SP_H__,r29
 3817 11c6 0FBE      		out __SREG__,__tmp_reg__
 3818 11c8 CDBF      		out __SP_L__,r28
 3819 11ca CF91      		pop r28
 3820 11cc DF91      		pop r29
 3821 11ce 1F91      		pop r17
 3822 11d0 0F91      		pop r16
 3823               	.LVL312:
 3824 11d2 FF90      		pop r15
 3825 11d4 EF90      		pop r14
 3826               	.LVL313:
 3827 11d6 DF90      		pop r13
 3828 11d8 CF90      		pop r12
 3829               	.LVL314:
 3830 11da BF90      		pop r11
 3831 11dc AF90      		pop r10
 3832               	.LVL315:
 3833 11de 9F90      		pop r9
 3834 11e0 8F90      		pop r8
 3835               	.LVL316:
 3836 11e2 7F90      		pop r7
 3837 11e4 6F90      		pop r6
 3838 11e6 5F90      		pop r5
 3839 11e8 4F90      		pop r4
 3840 11ea 3F90      		pop r3
 3841 11ec 2F90      		pop r2
 3842               	.LVL317:
 3843 11ee 0895      		ret
 3844               	.LFE24:
 3846               	.global	demo
 3848               	demo:
 3849               	.LFB29:
 3850               	.LM538:
 3851 11f0 BF92      		push r11
 3852 11f2 CF92      		push r12
 3853 11f4 DF92      		push r13
 3854 11f6 EF92      		push r14
 3855 11f8 FF92      		push r15
 3856 11fa 0F93      		push r16
 3857 11fc 1F93      		push r17
 3858 11fe CF93      		push r28
 3859 1200 DF93      		push r29
 3860               	/* prologue: function */
 3861               	/* frame size = 0 */
 3862               	.LM539:
 3863 1202 8091 0000 		lds r24,display
 3864 1206 90E0      		ldi r25,lo8(0)
 3865 1208 880F      		lsl r24
 3866 120a 991F      		rol r25
 3867 120c 8295      		swap r24
 3868 120e 9295      		swap r25
 3869 1210 907F      		andi r25,0xf0
 3870 1212 9827      		eor r25,r24
 3871 1214 807F      		andi r24,0xf0
 3872 1216 9827      		eor r25,r24
 3873 1218 6FE7      		ldi r22,lo8(127)
 3874 121a C62E      		mov r12,r22
 3875               	.LVL318:
 3876 121c C80E      		add r12,r24
 3877               	.LM540:
 3878 121e 880F      		lsl r24
 3879 1220 991F      		rol r25
 3880 1222 4FE3      		ldi r20,lo8(63)
 3881 1224 D42E      		mov r13,r20
 3882               	.LVL319:
 3883 1226 D80E      		add r13,r24
 3884               	.LM541:
 3885 1228 38E2      		ldi r19,lo8(40)
 3886 122a B32E      		mov r11,r19
 3887               	.LVL320:
 3888               	.L377:
 3889               	.LM542:
 3890 122c 1092 0000 		sts x_offset,__zero_reg__
 3891               	.LM543:
 3892 1230 D092 0000 		sts y_offset,r13
 3893 1234 00E0      		ldi r16,lo8(0)
 3894               	.LVL321:
 3895               	.L346:
 3896               	.LM544:
 3897 1236 10E2      		ldi r17,lo8(32)
 3898 1238 00C0      		rjmp .L348
 3899               	.L395:
 3900               	.LM545:
 3901 123a 1F5F      		subi r17,lo8(-(1))
 3902 123c 1B37      		cpi r17,lo8(123)
 3903 123e 01F0      		breq .L394
 3904               	.L348:
 3905               	.LM546:
 3906 1240 81E0      		ldi r24,lo8(1)
 3907 1242 0E94 0000 		call del_char
 3908               	.LM547:
 3909 1246 81E0      		ldi r24,lo8(1)
 3910 1248 612F      		mov r22,r17
 3911 124a 0E94 0000 		call print_char
 3912               	.LM548:
 3913 124e 8091 0000 		lds r24,RX_in
 3914 1252 9091 0000 		lds r25,(RX_in)+1
 3915 1256 892B      		or r24,r25
 3916 1258 01F0      		breq .L395
 3917               	.LVL322:
 3918               	.L378:
 3919               	/* epilogue start */
 3920               	.LM549:
 3921 125a DF91      		pop r29
 3922 125c CF91      		pop r28
 3923 125e 1F91      		pop r17
 3924               	.LVL323:
 3925 1260 0F91      		pop r16
 3926 1262 FF90      		pop r15
 3927               	.LVL324:
 3928 1264 EF90      		pop r14
 3929 1266 DF90      		pop r13
 3930               	.LVL325:
 3931 1268 CF90      		pop r12
 3932               	.LVL326:
 3933 126a BF90      		pop r11
 3934 126c 0895      		ret
 3935               	.LVL327:
 3936               	.L394:
 3937               	.LM550:
 3938 126e 0F5F      		subi r16,lo8(-(1))
 3939 1270 0530      		cpi r16,lo8(5)
 3940 1272 01F4      		brne .L346
 3941               	.LM551:
 3942 1274 0E94 0000 		call clear_screen
 3943 1278 00E0      		ldi r16,lo8(0)
 3944               	.LVL328:
 3945               	.L350:
 3946               	.LM552:
 3947 127a 10E2      		ldi r17,lo8(32)
 3948 127c 00C0      		rjmp .L352
 3949               	.L397:
 3950               	.LM553:
 3951 127e 1F5F      		subi r17,lo8(-(1))
 3952 1280 1B37      		cpi r17,lo8(123)
 3953 1282 01F0      		breq .L396
 3954               	.L352:
 3955               	.LM554:
 3956 1284 8091 0000 		lds r24,y_offset
 3957 1288 8650      		subi r24,lo8(-(-6))
 3958 128a 8093 0000 		sts y_offset,r24
 3959               	.LM555:
 3960 128e 8930      		cpi r24,lo8(9)
 3961 1290 00F4      		brsh .L351
 3962 1292 D092 0000 		sts y_offset,r13
 3963               	.L351:
 3964               	.LM556:
 3965 1296 81E0      		ldi r24,lo8(1)
 3966 1298 0E94 0000 		call del_char
 3967               	.LM557:
 3968 129c 81E0      		ldi r24,lo8(1)
 3969 129e 612F      		mov r22,r17
 3970 12a0 0E94 0000 		call print_char
 3971               	.LM558:
 3972 12a4 8091 0000 		lds r24,RX_in
 3973 12a8 9091 0000 		lds r25,(RX_in)+1
 3974 12ac 892B      		or r24,r25
 3975 12ae 01F0      		breq .L397
 3976 12b0 00C0      		rjmp .L378
 3977               	.L396:
 3978               	.LM559:
 3979 12b2 0F5F      		subi r16,lo8(-(1))
 3980 12b4 0530      		cpi r16,lo8(5)
 3981 12b6 01F4      		brne .L350
 3982               	.LM560:
 3983 12b8 0E94 0000 		call clear_screen
 3984               	.LM561:
 3985 12bc 8091 0000 		lds r24,display
 3986 12c0 682F      		mov r22,r24
 3987 12c2 70E0      		ldi r23,lo8(0)
 3988 12c4 15E0      		ldi r17,lo8(5)
 3989               	.LVL329:
 3990 12c6 E5E0      		ldi r30,lo8(5)
 3991 12c8 F0E0      		ldi r31,hi8(5)
 3992 12ca 00C0      		rjmp .L354
 3993               	.L399:
 3994 12cc 1B5F      		subi r17,lo8(-(5))
 3995 12ce A091 0000 		lds r26,display
 3996 12d2 6A2F      		mov r22,r26
 3997 12d4 70E0      		ldi r23,lo8(0)
 3998 12d6 E12F      		mov r30,r17
 3999 12d8 F0E0      		ldi r31,lo8(0)
 4000 12da 9B01      		movw r18,r22
 4001 12dc 220F      		lsl r18
 4002 12de 331F      		rol r19
 4003 12e0 220F      		lsl r18
 4004 12e2 331F      		rol r19
 4005 12e4 220F      		lsl r18
 4006 12e6 331F      		rol r19
 4007               	.LVL330:
 4008 12e8 C901      		movw r24,r18
 4009 12ea 880F      		lsl r24
 4010 12ec 991F      		rol r25
 4011 12ee 880F      		lsl r24
 4012 12f0 991F      		rol r25
 4013 12f2 880F      		lsl r24
 4014 12f4 991F      		rol r25
 4015 12f6 821B      		sub r24,r18
 4016 12f8 930B      		sbc r25,r19
 4017 12fa CF96      		adiw r24,63
 4018 12fc 8E17      		cp r24,r30
 4019 12fe 9F07      		cpc r25,r31
 4020 1300 04F0      		brlt .L398
 4021               	.LVL331:
 4022               	.L354:
 4023               	.LM562:
 4024 1302 6C5F      		subi r22,lo8(-(4))
 4025 1304 7F4F      		sbci r23,hi8(-(4))
 4026 1306 AB01      		movw r20,r22
 4027 1308 4350      		subi r20,lo8(-(-3))
 4028 130a 5040      		sbci r21,hi8(-(-3))
 4029 130c 440F      		lsl r20
 4030 130e 551F      		rol r21
 4031 1310 4295      		swap r20
 4032 1312 5295      		swap r21
 4033 1314 507F      		andi r21,0xf0
 4034 1316 5427      		eor r21,r20
 4035 1318 407F      		andi r20,0xf0
 4036 131a 5427      		eor r21,r20
 4037 131c 81E0      		ldi r24,lo8(1)
 4038 131e 6295      		swap r22
 4039 1320 7295      		swap r23
 4040 1322 707F      		andi r23,0xf0
 4041 1324 7627      		eor r23,r22
 4042 1326 607F      		andi r22,0xf0
 4043 1328 7627      		eor r23,r22
 4044 132a 9F01      		movw r18,r30
 4045 132c 0E94 0000 		call circle
 4046               	.LM563:
 4047 1330 8091 0000 		lds r24,RX_in
 4048 1334 9091 0000 		lds r25,(RX_in)+1
 4049 1338 892B      		or r24,r25
 4050 133a 01F0      		breq .L399
 4051 133c 00C0      		rjmp .L378
 4052               	.LVL332:
 4053               	.L398:
 4054               	.LM564:
 4055 133e CC20      		tst r12
 4056 1340 01F4      		brne .+2
 4057 1342 00C0      		rjmp .L355
 4058 1344 FD2C      		mov r15,r13
 4059               	.LVL333:
 4060 1346 10E0      		ldi r17,lo8(0)
 4061               	.LVL334:
 4062               	.L356:
 4063               	.LM565:
 4064 1348 81E0      		ldi r24,lo8(1)
 4065 134a 60E0      		ldi r22,lo8(0)
 4066 134c 4F2D      		mov r20,r15
 4067 134e 212F      		mov r18,r17
 4068 1350 00E0      		ldi r16,lo8(0)
 4069 1352 0E94 0000 		call line
 4070               	.LM566:
 4071 1356 2091 0000 		lds r18,display
 4072 135a 30E0      		ldi r19,lo8(0)
 4073 135c C901      		movw r24,r18
 4074 135e 8095      		com r24
 4075 1360 9095      		com r25
 4076 1362 880F      		lsl r24
 4077 1364 991F      		rol r25
 4078 1366 880F      		lsl r24
 4079 1368 991F      		rol r25
 4080 136a 880F      		lsl r24
 4081 136c 991F      		rol r25
 4082 136e F80E      		add r15,r24
 4083               	.LM567:
 4084 1370 2C5F      		subi r18,lo8(-(4))
 4085 1372 3F4F      		sbci r19,hi8(-(4))
 4086 1374 220F      		lsl r18
 4087 1376 331F      		rol r19
 4088 1378 220F      		lsl r18
 4089 137a 331F      		rol r19
 4090 137c 120F      		add r17,r18
 4091 137e 1C15      		cp r17,r12
 4092 1380 00F0      		brlo .L356
 4093 1382 10E0      		ldi r17,lo8(0)
 4094               	.LVL335:
 4095 1384 FF24      		clr r15
 4096               	.LVL336:
 4097               	.L357:
 4098               	.LM568:
 4099 1386 81E0      		ldi r24,lo8(1)
 4100 1388 612F      		mov r22,r17
 4101 138a 40E0      		ldi r20,lo8(0)
 4102 138c 2C2D      		mov r18,r12
 4103 138e 0F2D      		mov r16,r15
 4104 1390 0E94 0000 		call line
 4105               	.LM569:
 4106 1394 8091 0000 		lds r24,display
 4107 1398 90E0      		ldi r25,lo8(0)
 4108 139a 0196      		adiw r24,1
 4109 139c 9C01      		movw r18,r24
 4110 139e 220F      		lsl r18
 4111 13a0 331F      		rol r19
 4112 13a2 220F      		lsl r18
 4113 13a4 331F      		rol r19
 4114 13a6 220F      		lsl r18
 4115 13a8 331F      		rol r19
 4116 13aa F20E      		add r15,r18
 4117               	.LM570:
 4118 13ac 0396      		adiw r24,3
 4119 13ae 880F      		lsl r24
 4120 13b0 991F      		rol r25
 4121 13b2 880F      		lsl r24
 4122 13b4 991F      		rol r25
 4123 13b6 180F      		add r17,r24
 4124 13b8 1C15      		cp r17,r12
 4125 13ba 00F0      		brlo .L357
 4126 13bc FD2C      		mov r15,r13
 4127               	.LVL337:
 4128 13be 10E0      		ldi r17,lo8(0)
 4129               	.LVL338:
 4130               	.L358:
 4131               	.LM571:
 4132 13c0 81E0      		ldi r24,lo8(1)
 4133 13c2 612F      		mov r22,r17
 4134 13c4 4D2D      		mov r20,r13
 4135 13c6 2C2D      		mov r18,r12
 4136 13c8 0F2D      		mov r16,r15
 4137 13ca 0E94 0000 		call line
 4138               	.LM572:
 4139 13ce 2091 0000 		lds r18,display
 4140 13d2 30E0      		ldi r19,lo8(0)
 4141 13d4 C901      		movw r24,r18
 4142 13d6 8095      		com r24
 4143 13d8 9095      		com r25
 4144 13da 880F      		lsl r24
 4145 13dc 991F      		rol r25
 4146 13de 880F      		lsl r24
 4147 13e0 991F      		rol r25
 4148 13e2 880F      		lsl r24
 4149 13e4 991F      		rol r25
 4150 13e6 F80E      		add r15,r24
 4151               	.LM573:
 4152 13e8 2C5F      		subi r18,lo8(-(4))
 4153 13ea 3F4F      		sbci r19,hi8(-(4))
 4154 13ec 220F      		lsl r18
 4155 13ee 331F      		rol r19
 4156 13f0 220F      		lsl r18
 4157 13f2 331F      		rol r19
 4158 13f4 120F      		add r17,r18
 4159 13f6 1C15      		cp r17,r12
 4160 13f8 00F0      		brlo .L358
 4161 13fa 10E0      		ldi r17,lo8(0)
 4162               	.LVL339:
 4163 13fc FF24      		clr r15
 4164               	.LVL340:
 4165               	.L359:
 4166               	.LM574:
 4167 13fe 81E0      		ldi r24,lo8(1)
 4168 1400 60E0      		ldi r22,lo8(0)
 4169 1402 4F2D      		mov r20,r15
 4170 1404 212F      		mov r18,r17
 4171 1406 0D2D      		mov r16,r13
 4172 1408 0E94 0000 		call line
 4173               	.LM575:
 4174 140c A091 0000 		lds r26,display
 4175 1410 8A2F      		mov r24,r26
 4176 1412 90E0      		ldi r25,lo8(0)
 4177 1414 0196      		adiw r24,1
 4178 1416 9C01      		movw r18,r24
 4179 1418 220F      		lsl r18
 4180 141a 331F      		rol r19
 4181 141c 220F      		lsl r18
 4182 141e 331F      		rol r19
 4183 1420 220F      		lsl r18
 4184 1422 331F      		rol r19
 4185 1424 F20E      		add r15,r18
 4186               	.LM576:
 4187 1426 0396      		adiw r24,3
 4188 1428 880F      		lsl r24
 4189 142a 991F      		rol r25
 4190 142c 880F      		lsl r24
 4191 142e 991F      		rol r25
 4192 1430 180F      		add r17,r24
 4193 1432 1C15      		cp r17,r12
 4194 1434 00F0      		brlo .L359
 4195               	.L355:
 4196               	.LM577:
 4197 1436 6A2F      		mov r22,r26
 4198 1438 70E0      		ldi r23,lo8(0)
 4199 143a 15E0      		ldi r17,lo8(5)
 4200               	.LVL341:
 4201 143c E5E0      		ldi r30,lo8(5)
 4202 143e F0E0      		ldi r31,hi8(5)
 4203 1440 00C0      		rjmp .L360
 4204               	.L401:
 4205 1442 1B5F      		subi r17,lo8(-(5))
 4206 1444 A091 0000 		lds r26,display
 4207 1448 6A2F      		mov r22,r26
 4208 144a 70E0      		ldi r23,lo8(0)
 4209 144c E12F      		mov r30,r17
 4210 144e F0E0      		ldi r31,lo8(0)
 4211 1450 9B01      		movw r18,r22
 4212 1452 220F      		lsl r18
 4213 1454 331F      		rol r19
 4214 1456 220F      		lsl r18
 4215 1458 331F      		rol r19
 4216 145a 220F      		lsl r18
 4217 145c 331F      		rol r19
 4218 145e C901      		movw r24,r18
 4219 1460 880F      		lsl r24
 4220 1462 991F      		rol r25
 4221 1464 880F      		lsl r24
 4222 1466 991F      		rol r25
 4223 1468 880F      		lsl r24
 4224 146a 991F      		rol r25
 4225 146c 821B      		sub r24,r18
 4226 146e 930B      		sbc r25,r19
 4227 1470 CF96      		adiw r24,63
 4228 1472 8E17      		cp r24,r30
 4229 1474 9F07      		cpc r25,r31
 4230 1476 04F0      		brlt .L400
 4231               	.L360:
 4232               	.LM578:
 4233 1478 6C5F      		subi r22,lo8(-(4))
 4234 147a 7F4F      		sbci r23,hi8(-(4))
 4235 147c AB01      		movw r20,r22
 4236 147e 4350      		subi r20,lo8(-(-3))
 4237 1480 5040      		sbci r21,hi8(-(-3))
 4238 1482 440F      		lsl r20
 4239 1484 551F      		rol r21
 4240 1486 4295      		swap r20
 4241 1488 5295      		swap r21
 4242 148a 507F      		andi r21,0xf0
 4243 148c 5427      		eor r21,r20
 4244 148e 407F      		andi r20,0xf0
 4245 1490 5427      		eor r21,r20
 4246 1492 80E0      		ldi r24,lo8(0)
 4247 1494 6295      		swap r22
 4248 1496 7295      		swap r23
 4249 1498 707F      		andi r23,0xf0
 4250 149a 7627      		eor r23,r22
 4251 149c 607F      		andi r22,0xf0
 4252 149e 7627      		eor r23,r22
 4253 14a0 9F01      		movw r18,r30
 4254 14a2 0E94 0000 		call circle
 4255               	.LM579:
 4256 14a6 8091 0000 		lds r24,RX_in
 4257 14aa 9091 0000 		lds r25,(RX_in)+1
 4258 14ae 892B      		or r24,r25
 4259 14b0 01F0      		breq .L401
 4260 14b2 00C0      		rjmp .L378
 4261               	.L400:
 4262               	.LM580:
 4263 14b4 CC20      		tst r12
 4264 14b6 01F4      		brne .+2
 4265 14b8 00C0      		rjmp .L361
 4266 14ba FD2C      		mov r15,r13
 4267               	.LVL342:
 4268 14bc 10E0      		ldi r17,lo8(0)
 4269               	.LVL343:
 4270               	.L362:
 4271               	.LM581:
 4272 14be 80E0      		ldi r24,lo8(0)
 4273 14c0 60E0      		ldi r22,lo8(0)
 4274 14c2 4F2D      		mov r20,r15
 4275 14c4 212F      		mov r18,r17
 4276 14c6 00E0      		ldi r16,lo8(0)
 4277 14c8 0E94 0000 		call line
 4278               	.LM582:
 4279 14cc 2091 0000 		lds r18,display
 4280 14d0 30E0      		ldi r19,lo8(0)
 4281 14d2 C901      		movw r24,r18
 4282 14d4 8095      		com r24
 4283 14d6 9095      		com r25
 4284 14d8 880F      		lsl r24
 4285 14da 991F      		rol r25
 4286 14dc 880F      		lsl r24
 4287 14de 991F      		rol r25
 4288 14e0 880F      		lsl r24
 4289 14e2 991F      		rol r25
 4290 14e4 F80E      		add r15,r24
 4291               	.LM583:
 4292 14e6 2C5F      		subi r18,lo8(-(4))
 4293 14e8 3F4F      		sbci r19,hi8(-(4))
 4294 14ea 220F      		lsl r18
 4295 14ec 331F      		rol r19
 4296 14ee 220F      		lsl r18
 4297 14f0 331F      		rol r19
 4298 14f2 120F      		add r17,r18
 4299 14f4 1C15      		cp r17,r12
 4300 14f6 00F0      		brlo .L362
 4301 14f8 10E0      		ldi r17,lo8(0)
 4302               	.LVL344:
 4303 14fa FF24      		clr r15
 4304               	.LVL345:
 4305               	.L363:
 4306               	.LM584:
 4307 14fc 80E0      		ldi r24,lo8(0)
 4308 14fe 612F      		mov r22,r17
 4309 1500 40E0      		ldi r20,lo8(0)
 4310 1502 2C2D      		mov r18,r12
 4311 1504 0F2D      		mov r16,r15
 4312 1506 0E94 0000 		call line
 4313               	.LM585:
 4314 150a 8091 0000 		lds r24,display
 4315 150e 90E0      		ldi r25,lo8(0)
 4316 1510 0196      		adiw r24,1
 4317 1512 9C01      		movw r18,r24
 4318 1514 220F      		lsl r18
 4319 1516 331F      		rol r19
 4320 1518 220F      		lsl r18
 4321 151a 331F      		rol r19
 4322 151c 220F      		lsl r18
 4323 151e 331F      		rol r19
 4324 1520 F20E      		add r15,r18
 4325               	.LM586:
 4326 1522 0396      		adiw r24,3
 4327 1524 880F      		lsl r24
 4328 1526 991F      		rol r25
 4329 1528 880F      		lsl r24
 4330 152a 991F      		rol r25
 4331 152c 180F      		add r17,r24
 4332 152e 1C15      		cp r17,r12
 4333 1530 00F0      		brlo .L363
 4334 1532 FD2C      		mov r15,r13
 4335               	.LVL346:
 4336 1534 10E0      		ldi r17,lo8(0)
 4337               	.LVL347:
 4338               	.L364:
 4339               	.LM587:
 4340 1536 80E0      		ldi r24,lo8(0)
 4341 1538 612F      		mov r22,r17
 4342 153a 4D2D      		mov r20,r13
 4343 153c 2C2D      		mov r18,r12
 4344 153e 0F2D      		mov r16,r15
 4345 1540 0E94 0000 		call line
 4346               	.LM588:
 4347 1544 2091 0000 		lds r18,display
 4348 1548 30E0      		ldi r19,lo8(0)
 4349 154a C901      		movw r24,r18
 4350 154c 8095      		com r24
 4351 154e 9095      		com r25
 4352 1550 880F      		lsl r24
 4353 1552 991F      		rol r25
 4354 1554 880F      		lsl r24
 4355 1556 991F      		rol r25
 4356 1558 880F      		lsl r24
 4357 155a 991F      		rol r25
 4358 155c F80E      		add r15,r24
 4359               	.LM589:
 4360 155e 2C5F      		subi r18,lo8(-(4))
 4361 1560 3F4F      		sbci r19,hi8(-(4))
 4362 1562 220F      		lsl r18
 4363 1564 331F      		rol r19
 4364 1566 220F      		lsl r18
 4365 1568 331F      		rol r19
 4366 156a 120F      		add r17,r18
 4367 156c 1C15      		cp r17,r12
 4368 156e 00F0      		brlo .L364
 4369 1570 10E0      		ldi r17,lo8(0)
 4370               	.LVL348:
 4371 1572 FF24      		clr r15
 4372               	.LVL349:
 4373               	.L365:
 4374               	.LM590:
 4375 1574 80E0      		ldi r24,lo8(0)
 4376 1576 60E0      		ldi r22,lo8(0)
 4377 1578 4F2D      		mov r20,r15
 4378 157a 212F      		mov r18,r17
 4379 157c 0D2D      		mov r16,r13
 4380 157e 0E94 0000 		call line
 4381               	.LM591:
 4382 1582 A091 0000 		lds r26,display
 4383 1586 8A2F      		mov r24,r26
 4384 1588 90E0      		ldi r25,lo8(0)
 4385 158a 0196      		adiw r24,1
 4386 158c 9C01      		movw r18,r24
 4387 158e 220F      		lsl r18
 4388 1590 331F      		rol r19
 4389 1592 220F      		lsl r18
 4390 1594 331F      		rol r19
 4391 1596 220F      		lsl r18
 4392 1598 331F      		rol r19
 4393 159a F20E      		add r15,r18
 4394               	.LM592:
 4395 159c 0396      		adiw r24,3
 4396 159e 880F      		lsl r24
 4397 15a0 991F      		rol r25
 4398 15a2 880F      		lsl r24
 4399 15a4 991F      		rol r25
 4400 15a6 180F      		add r17,r24
 4401 15a8 1C15      		cp r17,r12
 4402 15aa 00F0      		brlo .L365
 4403               	.L361:
 4404               	.LM593:
 4405 15ac 8091 0000 		lds r24,RX_in
 4406 15b0 9091 0000 		lds r25,(RX_in)+1
 4407 15b4 892B      		or r24,r25
 4408 15b6 01F0      		breq .+2
 4409 15b8 00C0      		rjmp .L378
 4410               	.LM594:
 4411 15ba FA2E      		mov r15,r26
 4412               	.LVL350:
 4413 15bc F294      		swap r15
 4414 15be FF0C      		lsl r15
 4415 15c0 FF0C      		lsl r15
 4416 15c2 10EC      		ldi r17,lo8(-64)
 4417               	.LVL351:
 4418 15c4 F122      		and r15,r17
 4419 15c6 2FE2      		ldi r18,lo8(47)
 4420 15c8 F20E      		add r15,r18
 4421 15ca EE24      		clr r14
 4422               	.LVL352:
 4423               	.L366:
 4424 15cc 1E2D      		mov r17,r14
 4425 15ce 105F      		subi r17,lo8(-(16))
 4426               	.LM595:
 4427 15d0 0F2D      		mov r16,r15
 4428 15d2 005F      		subi r16,lo8(-(16))
 4429 15d4 8E2D      		mov r24,r14
 4430 15d6 6F2D      		mov r22,r15
 4431 15d8 412F      		mov r20,r17
 4432 15da 202F      		mov r18,r16
 4433 15dc 0E94 0000 		call erase_block
 4434               	.LM596:
 4435 15e0 8E2D      		mov r24,r14
 4436 15e2 6F2D      		mov r22,r15
 4437 15e4 412F      		mov r20,r17
 4438 15e6 202F      		mov r18,r16
 4439 15e8 0E94 0000 		call box
 4440               	.LM597:
 4441 15ec A091 0000 		lds r26,display
 4442 15f0 8A2F      		mov r24,r26
 4443 15f2 90E0      		ldi r25,lo8(0)
 4444 15f4 BC01      		movw r22,r24
 4445 15f6 660F      		lsl r22
 4446 15f8 771F      		rol r23
 4447 15fa 680F      		add r22,r24
 4448 15fc 791F      		adc r23,r25
 4449 15fe F61A      		sub r15,r22
 4450 1600 2CEF      		ldi r18,lo8(-4)
 4451 1602 F20E      		add r15,r18
 4452               	.LM598:
 4453 1604 2AE0      		ldi r18,lo8(10)
 4454 1606 E20E      		add r14,r18
 4455 1608 4E2D      		mov r20,r14
 4456 160a 50E0      		ldi r21,lo8(0)
 4457               	.LVL353:
 4458 160c 880F      		lsl r24
 4459 160e 991F      		rol r25
 4460 1610 880F      		lsl r24
 4461 1612 991F      		rol r25
 4462 1614 880F      		lsl r24
 4463 1616 991F      		rol r25
 4464 1618 9C01      		movw r18,r24
 4465 161a 220F      		lsl r18
 4466 161c 331F      		rol r19
 4467 161e 220F      		lsl r18
 4468 1620 331F      		rol r19
 4469 1622 820F      		add r24,r18
 4470 1624 931F      		adc r25,r19
 4471 1626 8C59      		subi r24,lo8(-(100))
 4472 1628 9F4F      		sbci r25,hi8(-(100))
 4473 162a 8417      		cp r24,r20
 4474 162c 9507      		cpc r25,r21
 4475 162e 04F4      		brge .L366
 4476               	.LVL354:
 4477               	.LM599:
 4478 1630 CB01      		movw r24,r22
 4479 1632 880F      		lsl r24
 4480 1634 991F      		rol r25
 4481 1636 96E1      		ldi r25,lo8(22)
 4482 1638 F92E      		mov r15,r25
 4483               	.LVL355:
 4484 163a F80E      		add r15,r24
 4485 163c C0E0      		ldi r28,lo8(logo)
 4486 163e D0E0      		ldi r29,hi8(logo)
 4487               	.LVL356:
 4488               	.L375:
 4489               	.LM600:
 4490 1640 0881      		ld r16,Y
 4491               	.LVL357:
 4492               	.LM601:
 4493 1642 AB9D      		mul r26,r11
 4494 1644 C001      		movw r24,r0
 4495 1646 1124      		clr r1
 4496 1648 682F      		mov r22,r24
 4497 164a 182F      		mov r17,r24
 4498               	.LVL358:
 4499 164c 1C59      		subi r17,lo8(-(100))
 4500 164e 8559      		subi r24,lo8(-(107))
 4501 1650 9F4F      		sbci r25,hi8(-(107))
 4502 1652 212F      		mov r18,r17
 4503 1654 30E0      		ldi r19,lo8(0)
 4504               	.LVL359:
 4505 1656 8217      		cp r24,r18
 4506 1658 9307      		cpc r25,r19
 4507 165a 04F4      		brge .L392
 4508               	.LVL360:
 4509 165c 00C0      		rjmp .L367
 4510               	.LVL361:
 4511               	.L368:
 4512 165e 1F5F      		subi r17,lo8(-(1))
 4513 1660 AB9D      		mul r26,r11
 4514 1662 A001      		movw r20,r0
 4515 1664 1124      		clr r1
 4516 1666 9A01      		movw r18,r20
 4517 1668 2559      		subi r18,lo8(-(107))
 4518 166a 3F4F      		sbci r19,hi8(-(107))
 4519 166c 812F      		mov r24,r17
 4520 166e 90E0      		ldi r25,lo8(0)
 4521               	.LVL362:
 4522 1670 2817      		cp r18,r24
 4523 1672 3907      		cpc r19,r25
 4524 1674 04F0      		brlt .L369
 4525               	.LVL363:
 4526               	.LM602:
 4527 1676 000F      		lsl r16
 4528               	.LVL364:
 4529               	.L392:
 4530               	.LM603:
 4531 1678 07FF      		sbrs r16,7
 4532 167a 00C0      		rjmp .L368
 4533 167c 81E0      		ldi r24,lo8(1)
 4534 167e 612F      		mov r22,r17
 4535 1680 4F2D      		mov r20,r15
 4536 1682 0E94 0000 		call pixel
 4537               	.LVL365:
 4538 1686 A091 0000 		lds r26,display
 4539 168a 00C0      		rjmp .L368
 4540               	.LVL366:
 4541               	.L369:
 4542               	.LM604:
 4543 168c 642F      		mov r22,r20
 4544               	.LVL367:
 4545               	.L367:
 4546               	.LM605:
 4547 168e 0981      		ldd r16,Y+1
 4548               	.LVL368:
 4549               	.LM606:
 4550 1690 162F      		mov r17,r22
 4551               	.LVL369:
 4552 1692 1459      		subi r17,lo8(-(108))
 4553 1694 AB9D      		mul r26,r11
 4554 1696 C001      		movw r24,r0
 4555 1698 1124      		clr r1
 4556 169a 8D58      		subi r24,lo8(-(115))
 4557 169c 9F4F      		sbci r25,hi8(-(115))
 4558 169e 212F      		mov r18,r17
 4559 16a0 30E0      		ldi r19,lo8(0)
 4560               	.LVL370:
 4561 16a2 8217      		cp r24,r18
 4562 16a4 9307      		cpc r25,r19
 4563 16a6 04F4      		brge .L393
 4564               	.LVL371:
 4565 16a8 00C0      		rjmp .L371
 4566               	.LVL372:
 4567               	.L372:
 4568 16aa 1F5F      		subi r17,lo8(-(1))
 4569 16ac AB9D      		mul r26,r11
 4570 16ae C001      		movw r24,r0
 4571 16b0 1124      		clr r1
 4572 16b2 8D58      		subi r24,lo8(-(115))
 4573 16b4 9F4F      		sbci r25,hi8(-(115))
 4574 16b6 212F      		mov r18,r17
 4575 16b8 30E0      		ldi r19,lo8(0)
 4576               	.LVL373:
 4577 16ba 8217      		cp r24,r18
 4578 16bc 9307      		cpc r25,r19
 4579 16be 04F0      		brlt .L371
 4580               	.LVL374:
 4581               	.LM607:
 4582 16c0 000F      		lsl r16
 4583               	.L393:
 4584               	.LM608:
 4585 16c2 07FF      		sbrs r16,7
 4586 16c4 00C0      		rjmp .L372
 4587 16c6 81E0      		ldi r24,lo8(1)
 4588 16c8 612F      		mov r22,r17
 4589 16ca 4F2D      		mov r20,r15
 4590 16cc 0E94 0000 		call pixel
 4591               	.LVL375:
 4592 16d0 A091 0000 		lds r26,display
 4593 16d4 00C0      		rjmp .L372
 4594               	.LVL376:
 4595               	.L371:
 4596               	.LM609:
 4597 16d6 2296      		adiw r28,2
 4598               	.LM610:
 4599 16d8 80E0      		ldi r24,hi8(logo+30)
 4600 16da C030      		cpi r28,lo8(logo+30)
 4601 16dc D807      		cpc r29,r24
 4602 16de 01F0      		breq .L374
 4603               	.LM611:
 4604 16e0 FA94      		dec r15
 4605 16e2 00C0      		rjmp .L375
 4606               	.L374:
 4607               	.LM612:
 4608 16e4 AA23      		tst r26
 4609 16e6 01F4      		brne .L376
 4610 16e8 80E0      		ldi r24,lo8(0)
 4611 16ea 60E0      		ldi r22,lo8(0)
 4612 16ec 40E0      		ldi r20,lo8(0)
 4613 16ee 0E94 0000 		call pixel
 4614               	.LVL377:
 4615               	.L376:
 4616               	.LM613:
 4617 16f2 88EE      		ldi r24,lo8(1000)
 4618 16f4 93E0      		ldi r25,hi8(1000)
 4619 16f6 0E94 0000 		call delay_ms
 4620               	.LVL378:
 4621               	.LM614:
 4622 16fa 8091 0000 		lds r24,reverse
 4623 16fe 91E0      		ldi r25,lo8(1)
 4624 1700 8927      		eor r24,r25
 4625 1702 8093 0000 		sts reverse,r24
 4626               	.LM615:
 4627 1706 0E94 0000 		call clear_screen
 4628 170a 00C0      		rjmp .L377
 4629               	.LFE29:
 4631               	.global	main
 4633               	main:
 4634               	.LFB6:
 4635               	.LM616:
 4636 170c 7F92      		push r7
 4637 170e 8F92      		push r8
 4638 1710 9F92      		push r9
 4639 1712 AF92      		push r10
 4640 1714 BF92      		push r11
 4641 1716 CF92      		push r12
 4642 1718 DF92      		push r13
 4643 171a EF92      		push r14
 4644 171c FF92      		push r15
 4645 171e 0F93      		push r16
 4646 1720 1F93      		push r17
 4647 1722 CF93      		push r28
 4648 1724 DF93      		push r29
 4649               	/* prologue: function */
 4650               	/* frame size = 0 */
 4651               	.LM617:
 4652 1726 2B9A      		sbi 37-32,3
 4653 1728 80E0      		ldi r24,lo8(0)
 4654               	.LVL379:
 4655               	.L403:
 4656               	.LBB290:
 4657               	.LBB291:
 4658               	.LM618:
 4659               	/* #APP */
 4660               	 ;  759 "main.c" 1
 4661 172a 0000      		nop
 4662               	 ;  0 "" 2
 4663               	.LM619:
 4664               	/* #NOAPP */
 4665 172c 8F5F      		subi r24,lo8(-(1))
 4666 172e 8E31      		cpi r24,lo8(30)
 4667 1730 01F4      		brne .L403
 4668               	.LBE291:
 4669               	.LBE290:
 4670               	.LM620:
 4671 1732 1B9B      		sbis 35-32,3
 4672 1734 00C0      		rjmp .L404
 4673 1736 81E0      		ldi r24,lo8(1)
 4674               	.LVL380:
 4675 1738 8093 0000 		sts display,r24
 4676               	.LVL381:
 4677               	.L405:
 4678               	.LM621:
 4679 173c 0E94 0000 		call ioinit
 4680               	.LVL382:
 4681               	.LM622:
 4682 1740 86E0      		ldi r24,lo8(6)
 4683 1742 0E94 0000 		call set_baud
 4684               	.LM623:
 4685 1746 80E0      		ldi r24,lo8(gs(put_char))
 4686 1748 90E0      		ldi r25,hi8(gs(put_char))
 4687 174a 0E94 0000 		call rprintf_devopen
 4688               	.L406:
 4689               	.LBB292:
 4690               	.LBB293:
 4691               	.LM624:
 4692 174e F999      		sbic 63-32,1
 4693 1750 00C0      		rjmp .L406
 4694               	.LM625:
 4695 1752 12BC      		out (65)+1-32,__zero_reg__
 4696 1754 11BC      		out 65-32,__zero_reg__
 4697               	.LM626:
 4698 1756 F89A      		sbi 63-32,0
 4699               	.LM627:
 4700 1758 90B5      		in r25,64-32
 4701               	.LVL383:
 4702               	.LBE293:
 4703               	.LBE292:
 4704               	.LM628:
 4705 175a 892F      		mov r24,r25
 4706 175c 8150      		subi r24,lo8(-(-1))
 4707 175e 8630      		cpi r24,lo8(6)
 4708 1760 00F0      		brlo .L407
 4709               	.LM629:
 4710               	/* #APP */
 4711               	 ;  270 "main.c" 1
 4712 1762 F894      		cli
 4713               	 ;  0 "" 2
 4714               	/* #NOAPP */
 4715               	.L408:
 4716               	.LBB294:
 4717               	.LBB295:
 4718               	.LM630:
 4719 1764 F999      		sbic 63-32,1
 4720 1766 00C0      		rjmp .L408
 4721               	.LM631:
 4722 1768 12BC      		out (65)+1-32,__zero_reg__
 4723 176a 11BC      		out 65-32,__zero_reg__
 4724               	.LM632:
 4725 176c 86E0      		ldi r24,lo8(6)
 4726 176e 80BD      		out 64-32,r24
 4727               	.LM633:
 4728 1770 FA9A      		sbi 63-32,2
 4729               	.LM634:
 4730 1772 F99A      		sbi 63-32,1
 4731               	.L409:
 4732               	.LBE295:
 4733               	.LBE294:
 4734               	.LBB296:
 4735               	.LBB297:
 4736               	.LM635:
 4737 1774 F999      		sbic 63-32,1
 4738 1776 00C0      		rjmp .L409
 4739               	.LM636:
 4740 1778 81E0      		ldi r24,lo8(1)
 4741 177a 90E0      		ldi r25,hi8(1)
 4742 177c 92BD      		out (65)+1-32,r25
 4743 177e 81BD      		out 65-32,r24
 4744               	.LM637:
 4745 1780 84E6      		ldi r24,lo8(100)
 4746 1782 80BD      		out 64-32,r24
 4747               	.LM638:
 4748 1784 FA9A      		sbi 63-32,2
 4749               	.LM639:
 4750 1786 F99A      		sbi 63-32,1
 4751               	.L410:
 4752               	.LBE297:
 4753               	.LBE296:
 4754               	.LBB298:
 4755               	.LBB299:
 4756               	.LM640:
 4757 1788 F999      		sbic 63-32,1
 4758 178a 00C0      		rjmp .L410
 4759               	.LM641:
 4760 178c 82E0      		ldi r24,lo8(2)
 4761 178e 90E0      		ldi r25,hi8(2)
 4762 1790 92BD      		out (65)+1-32,r25
 4763 1792 81BD      		out 65-32,r24
 4764               	.LM642:
 4765 1794 81E0      		ldi r24,lo8(1)
 4766 1796 80BD      		out 64-32,r24
 4767               	.LM643:
 4768 1798 FA9A      		sbi 63-32,2
 4769               	.LM644:
 4770 179a F99A      		sbi 63-32,1
 4771               	.L411:
 4772               	.LBE299:
 4773               	.LBE298:
 4774               	.LBB300:
 4775               	.LBB301:
 4776               	.LM645:
 4777 179c F999      		sbic 63-32,1
 4778 179e 00C0      		rjmp .L411
 4779               	.LM646:
 4780 17a0 83E0      		ldi r24,lo8(3)
 4781 17a2 90E0      		ldi r25,hi8(3)
 4782 17a4 92BD      		out (65)+1-32,r25
 4783 17a6 81BD      		out 65-32,r24
 4784               	.LM647:
 4785 17a8 10BC      		out 64-32,__zero_reg__
 4786               	.LM648:
 4787 17aa FA9A      		sbi 63-32,2
 4788               	.LM649:
 4789 17ac F99A      		sbi 63-32,1
 4790               	.LBE301:
 4791               	.LBE300:
 4792               	.LM650:
 4793               	/* #APP */
 4794               	 ;  277 "main.c" 1
 4795 17ae 7894      		sei
 4796               	 ;  0 "" 2
 4797               	.LM651:
 4798               	/* #NOAPP */
 4799 17b0 84E6      		ldi r24,lo8(100)
 4800 17b2 8093 0000 		sts BL_dutycycle,r24
 4801               	.LM652:
 4802 17b6 86E0      		ldi r24,lo8(6)
 4803 17b8 8093 0000 		sts baud_rate,r24
 4804               	.LM653:
 4805 17bc 81E0      		ldi r24,lo8(1)
 4806 17be 8093 0000 		sts splash_screen,r24
 4807               	.LM654:
 4808 17c2 1092 0000 		sts reverse,__zero_reg__
 4809 17c6 00C0      		rjmp .L412
 4810               	.LVL384:
 4811               	.L404:
 4812               	.LM655:
 4813 17c8 1092 0000 		sts display,__zero_reg__
 4814 17cc 00C0      		rjmp .L405
 4815               	.LVL385:
 4816               	.L407:
 4817               	.LM656:
 4818 17ce 9093 0000 		sts baud_rate,r25
 4819               	.L413:
 4820               	.LBB302:
 4821               	.LBB303:
 4822               	.LM657:
 4823 17d2 F999      		sbic 63-32,1
 4824 17d4 00C0      		rjmp .L413
 4825               	.LM658:
 4826 17d6 81E0      		ldi r24,lo8(1)
 4827 17d8 90E0      		ldi r25,hi8(1)
 4828 17da 92BD      		out (65)+1-32,r25
 4829 17dc 81BD      		out 65-32,r24
 4830               	.LM659:
 4831 17de F89A      		sbi 63-32,0
 4832               	.LM660:
 4833 17e0 80B5      		in r24,64-32
 4834               	.LBE303:
 4835               	.LBE302:
 4836               	.LM661:
 4837 17e2 8093 0000 		sts BL_dutycycle,r24
 4838               	.L414:
 4839               	.LBB304:
 4840               	.LBB305:
 4841               	.LM662:
 4842 17e6 F999      		sbic 63-32,1
 4843 17e8 00C0      		rjmp .L414
 4844               	.LM663:
 4845 17ea 82E0      		ldi r24,lo8(2)
 4846 17ec 90E0      		ldi r25,hi8(2)
 4847 17ee 92BD      		out (65)+1-32,r25
 4848 17f0 81BD      		out 65-32,r24
 4849               	.LM664:
 4850 17f2 F89A      		sbi 63-32,0
 4851               	.LM665:
 4852 17f4 80B5      		in r24,64-32
 4853               	.LBE305:
 4854               	.LBE304:
 4855               	.LM666:
 4856 17f6 8093 0000 		sts splash_screen,r24
 4857               	.L415:
 4858               	.LBB306:
 4859               	.LBB307:
 4860               	.LM667:
 4861 17fa F999      		sbic 63-32,1
 4862 17fc 00C0      		rjmp .L415
 4863               	.LM668:
 4864 17fe 83E0      		ldi r24,lo8(3)
 4865 1800 90E0      		ldi r25,hi8(3)
 4866 1802 92BD      		out (65)+1-32,r25
 4867 1804 81BD      		out 65-32,r24
 4868               	.LM669:
 4869 1806 F89A      		sbi 63-32,0
 4870               	.LM670:
 4871 1808 80B5      		in r24,64-32
 4872               	.LBE307:
 4873               	.LBE306:
 4874               	.LM671:
 4875 180a 8093 0000 		sts reverse,r24
 4876               	.L412:
 4877               	.LM672:
 4878 180e 8091 0000 		lds r24,display
 4879 1812 8823      		tst r24
 4880 1814 01F4      		brne .+2
 4881 1816 00C0      		rjmp .L532
 4882               	.LM673:
 4883 1818 8130      		cpi r24,lo8(1)
 4884 181a 01F4      		brne .L421
 4885               	.LM674:
 4886 181c 4598      		cbi 40-32,5
 4887               	.LM675:
 4888 181e 82E3      		ldi r24,lo8(50)
 4889 1820 90E0      		ldi r25,hi8(50)
 4890 1822 0E94 0000 		call delay_ms
 4891               	.LVL386:
 4892               	.LM676:
 4893 1826 459A      		sbi 40-32,5
 4894               	.LM677:
 4895 1828 0E94 0000 		call display_init
 4896               	.LM678:
 4897 182c 0E94 0000 		call clear_screen
 4898               	.LVL387:
 4899               	.L421:
 4900               	.LM679:
 4901 1830 8091 0000 		lds r24,BL_dutycycle
 4902 1834 0E94 0000 		call set_backlight
 4903               	.LVL388:
 4904               	.LM680:
 4905 1838 84EF      		ldi r24,lo8(500)
 4906 183a 91E0      		ldi r25,hi8(500)
 4907 183c 0E94 0000 		call delay_ms
 4908               	.LM681:
 4909 1840 8091 0000 		lds r24,splash_screen
 4910 1844 8130      		cpi r24,lo8(1)
 4911 1846 01F4      		brne .+2
 4912 1848 00C0      		rjmp .L533
 4913               	.LVL389:
 4914               	.L422:
 4915               	.LM682:
 4916 184a 8091 0000 		lds r24,display
 4917 184e 8823      		tst r24
 4918 1850 01F4      		brne .L432
 4919 1852 60E0      		ldi r22,lo8(0)
 4920 1854 40E0      		ldi r20,lo8(0)
 4921 1856 0E94 0000 		call pixel
 4922               	.LVL390:
 4923               	.L432:
 4924               	.LM683:
 4925 185a 1092 0000 		sts (RX_in)+1,__zero_reg__
 4926 185e 1092 0000 		sts RX_in,__zero_reg__
 4927               	.LM684:
 4928 1862 88EE      		ldi r24,lo8(1000)
 4929 1864 93E0      		ldi r25,hi8(1000)
 4930 1866 0E94 0000 		call delay_ms
 4931               	.LVL391:
 4932               	.LM685:
 4933 186a 0E94 0000 		call clear_screen
 4934               	.LM686:
 4935 186e 8091 0000 		lds r24,RX_in
 4936 1872 9091 0000 		lds r25,(RX_in)+1
 4937 1876 892B      		or r24,r25
 4938 1878 01F4      		brne .+2
 4939 187a 00C0      		rjmp .L433
 4940               	.LM687:
 4941 187c 81E0      		ldi r24,lo8(1)
 4942 187e 61E3      		ldi r22,lo8(49)
 4943 1880 0E94 0000 		call print_char
 4944               	.LM688:
 4945 1884 81E0      		ldi r24,lo8(1)
 4946 1886 61E3      		ldi r22,lo8(49)
 4947 1888 0E94 0000 		call print_char
 4948               	.LM689:
 4949 188c 81E0      		ldi r24,lo8(1)
 4950 188e 65E3      		ldi r22,lo8(53)
 4951 1890 0E94 0000 		call print_char
 4952               	.LM690:
 4953 1894 81E0      		ldi r24,lo8(1)
 4954 1896 62E3      		ldi r22,lo8(50)
 4955 1898 0E94 0000 		call print_char
 4956               	.LM691:
 4957 189c 81E0      		ldi r24,lo8(1)
 4958 189e 60E3      		ldi r22,lo8(48)
 4959 18a0 0E94 0000 		call print_char
 4960               	.LM692:
 4961 18a4 81E0      		ldi r24,lo8(1)
 4962 18a6 60E3      		ldi r22,lo8(48)
 4963 18a8 0E94 0000 		call print_char
 4964               	.LM693:
 4965 18ac 86E0      		ldi r24,lo8(6)
 4966 18ae 8093 0000 		sts baud_rate,r24
 4967               	.LM694:
 4968 18b2 0E94 0000 		call set_baud
 4969               	.LM695:
 4970               	/* #APP */
 4971               	 ;  400 "main.c" 1
 4972 18b6 F894      		cli
 4973               	 ;  0 "" 2
 4974               	/* #NOAPP */
 4975               	.L434:
 4976               	.LBB308:
 4977               	.LBB309:
 4978               	.LM696:
 4979 18b8 F999      		sbic 63-32,1
 4980 18ba 00C0      		rjmp .L434
 4981               	.LM697:
 4982 18bc 12BC      		out (65)+1-32,__zero_reg__
 4983 18be 11BC      		out 65-32,__zero_reg__
 4984               	.LM698:
 4985 18c0 86E0      		ldi r24,lo8(6)
 4986 18c2 80BD      		out 64-32,r24
 4987               	.LM699:
 4988 18c4 FA9A      		sbi 63-32,2
 4989               	.LM700:
 4990 18c6 F99A      		sbi 63-32,1
 4991               	.LBE309:
 4992               	.LBE308:
 4993               	.LM701:
 4994               	/* #APP */
 4995               	 ;  404 "main.c" 1
 4996 18c8 7894      		sei
 4997               	 ;  0 "" 2
 4998               	/* #NOAPP */
 4999               	.L435:
 5000               	.LM702:
 5001 18ca 88EE      		ldi r24,lo8(1000)
 5002 18cc 93E0      		ldi r25,hi8(1000)
 5003 18ce 0E94 0000 		call delay_ms
 5004               	.LM703:
 5005 18d2 0E94 0000 		call clear_screen
 5006 18d6 2091 0000 		lds r18,RX_read
 5007 18da 3091 0000 		lds r19,(RX_read)+1
 5008               	.LM704:
 5009 18de BFE7      		ldi r27,lo8(127)
 5010 18e0 FB2E      		mov r15,r27
 5011               	.LVL392:
 5012               	.LM705:
 5013 18e2 AFE9      		ldi r26,lo8(-97)
 5014 18e4 EA2E      		mov r14,r26
 5015               	.LVL393:
 5016               	.LM706:
 5017 18e6 C1E0      		ldi r28,lo8(1)
 5018 18e8 D0E0      		ldi r29,hi8(1)
 5019               	.LBB310:
 5020               	.LBB311:
 5021               	.LM707:
 5022 18ea F2E0      		ldi r31,lo8(2)
 5023 18ec CF2E      		mov r12,r31
 5024 18ee D12C      		mov r13,__zero_reg__
 5025               	.LBE311:
 5026               	.LBE310:
 5027               	.LBB313:
 5028               	.LBB314:
 5029 18f0 E3E0      		ldi r30,lo8(3)
 5030 18f2 AE2E      		mov r10,r30
 5031 18f4 B12C      		mov r11,__zero_reg__
 5032               	.LVL394:
 5033               	.L525:
 5034               	.LBE314:
 5035               	.LBE313:
 5036               	.LM708:
 5037 18f6 8091 0000 		lds r24,RX_in
 5038 18fa 9091 0000 		lds r25,(RX_in)+1
 5039 18fe 8217      		cp r24,r18
 5040 1900 9307      		cpc r25,r19
 5041 1902 01F0      		breq .L525
 5042               	.LM709:
 5043 1904 F901      		movw r30,r18
 5044 1906 E050      		subi r30,lo8(-(RX_array))
 5045 1908 F040      		sbci r31,hi8(-(RX_array))
 5046 190a 0081      		ld r16,Z
 5047               	.LM710:
 5048 190c C901      		movw r24,r18
 5049 190e 0196      		adiw r24,1
 5050 1910 9093 0000 		sts (RX_read)+1,r25
 5051 1914 8093 0000 		sts RX_read,r24
 5052               	.LM711:
 5053 1918 805A      		subi r24,lo8(416)
 5054 191a 9140      		sbci r25,hi8(416)
 5055 191c 00F0      		brlo .L437
 5056 191e 1092 0000 		sts (RX_read)+1,__zero_reg__
 5057 1922 1092 0000 		sts RX_read,__zero_reg__
 5058               	.L437:
 5059               	.LM712:
 5060 1926 0830      		cpi r16,lo8(8)
 5061 1928 01F4      		brne .+2
 5062 192a 00C0      		rjmp .L534
 5063               	.LM713:
 5064 192c 0C37      		cpi r16,lo8(124)
 5065 192e 01F4      		brne .+2
 5066 1930 00C0      		rjmp .L535
 5067               	.LM714:
 5068 1932 81E0      		ldi r24,lo8(1)
 5069 1934 0E94 0000 		call del_char
 5070               	.LM715:
 5071 1938 81E0      		ldi r24,lo8(1)
 5072 193a 602F      		mov r22,r16
 5073 193c 0E94 0000 		call print_char
 5074 1940 2091 0000 		lds r18,RX_read
 5075 1944 3091 0000 		lds r19,(RX_read)+1
 5076 1948 00C0      		rjmp .L525
 5077               	.LVL395:
 5078               	.L533:
 5079               	.LM716:
 5080 194a 8091 0000 		lds r24,display
 5081 194e 8130      		cpi r24,lo8(1)
 5082 1950 01F4      		brne .+2
 5083 1952 00C0      		rjmp .L536
 5084 1954 48E3      		ldi r20,lo8(56)
 5085 1956 E42E      		mov r14,r20
 5086               	.LVL396:
 5087 1958 38E2      		ldi r19,lo8(40)
 5088 195a F32E      		mov r15,r19
 5089               	.LVL397:
 5090 195c 88E3      		ldi r24,lo8(56)
 5091 195e 90E0      		ldi r25,hi8(56)
 5092 1960 2FE3      		ldi r18,lo8(63)
 5093 1962 C22E      		mov r12,r18
 5094 1964 D12C      		mov r13,__zero_reg__
 5095               	.L424:
 5096 1966 C0E0      		ldi r28,lo8(logo)
 5097 1968 D0E0      		ldi r29,hi8(logo)
 5098 196a 08E0      		ldi r16,lo8(8)
 5099 196c 702E      		mov r7,r16
 5100               	.LVL398:
 5101 196e 7E0C      		add r7,r14
 5102 1970 1FE0      		ldi r17,lo8(15)
 5103 1972 A12E      		mov r10,r17
 5104 1974 B12C      		mov r11,__zero_reg__
 5105 1976 A80E      		add r10,r24
 5106 1978 B91E      		adc r11,r25
 5107               	.LM717:
 5108 197a 872C      		mov r8,r7
 5109 197c 9924      		clr r9
 5110               	.LVL399:
 5111               	.L431:
 5112               	.LM718:
 5113 197e 1881      		ld r17,Y
 5114               	.LVL400:
 5115 1980 0E2D      		mov r16,r14
 5116               	.LVL401:
 5117 1982 00C0      		rjmp .L427
 5118               	.LVL402:
 5119               	.L425:
 5120               	.LM719:
 5121 1984 0F5F      		subi r16,lo8(-(1))
 5122 1986 802F      		mov r24,r16
 5123 1988 90E0      		ldi r25,lo8(0)
 5124               	.LVL403:
 5125 198a C816      		cp r12,r24
 5126 198c D906      		cpc r13,r25
 5127 198e 04F0      		brlt .L426
 5128               	.LVL404:
 5129               	.LM720:
 5130 1990 110F      		lsl r17
 5131               	.LVL405:
 5132               	.L427:
 5133               	.LM721:
 5134 1992 17FF      		sbrs r17,7
 5135 1994 00C0      		rjmp .L425
 5136 1996 81E0      		ldi r24,lo8(1)
 5137 1998 602F      		mov r22,r16
 5138 199a 4F2D      		mov r20,r15
 5139 199c 0E94 0000 		call pixel
 5140               	.LVL406:
 5141 19a0 00C0      		rjmp .L425
 5142               	.LVL407:
 5143               	.L426:
 5144               	.LM722:
 5145 19a2 1981      		ldd r17,Y+1
 5146               	.LVL408:
 5147               	.LM723:
 5148 19a4 072D      		mov r16,r7
 5149 19a6 A814      		cp r10,r8
 5150 19a8 B904      		cpc r11,r9
 5151 19aa 04F4      		brge .L526
 5152               	.LVL409:
 5153 19ac 00C0      		rjmp .L428
 5154               	.L429:
 5155 19ae 0F5F      		subi r16,lo8(-(1))
 5156               	.LVL410:
 5157 19b0 802F      		mov r24,r16
 5158 19b2 90E0      		ldi r25,lo8(0)
 5159               	.LVL411:
 5160 19b4 A816      		cp r10,r24
 5161 19b6 B906      		cpc r11,r25
 5162 19b8 04F0      		brlt .L428
 5163               	.LVL412:
 5164               	.LM724:
 5165 19ba 110F      		lsl r17
 5166               	.LVL413:
 5167               	.L526:
 5168               	.LM725:
 5169 19bc 17FF      		sbrs r17,7
 5170 19be 00C0      		rjmp .L429
 5171               	.LVL414:
 5172 19c0 81E0      		ldi r24,lo8(1)
 5173 19c2 602F      		mov r22,r16
 5174 19c4 4F2D      		mov r20,r15
 5175 19c6 0E94 0000 		call pixel
 5176               	.LVL415:
 5177 19ca 00C0      		rjmp .L429
 5178               	.LVL416:
 5179               	.L428:
 5180               	.LM726:
 5181 19cc 2296      		adiw r28,2
 5182               	.LM727:
 5183 19ce 20E0      		ldi r18,hi8(logo+30)
 5184 19d0 C030      		cpi r28,lo8(logo+30)
 5185 19d2 D207      		cpc r29,r18
 5186 19d4 01F4      		brne .+2
 5187 19d6 00C0      		rjmp .L422
 5188               	.LM728:
 5189 19d8 FA94      		dec r15
 5190 19da 00C0      		rjmp .L431
 5191               	.LVL417:
 5192               	.L536:
 5193               	.LM729:
 5194 19dc 78E4      		ldi r23,lo8(72)
 5195 19de E72E      		mov r14,r23
 5196               	.LVL418:
 5197 19e0 68E4      		ldi r22,lo8(72)
 5198 19e2 F62E      		mov r15,r22
 5199               	.LVL419:
 5200 19e4 88E4      		ldi r24,lo8(72)
 5201 19e6 90E0      		ldi r25,hi8(72)
 5202 19e8 5FE4      		ldi r21,lo8(79)
 5203 19ea C52E      		mov r12,r21
 5204 19ec D12C      		mov r13,__zero_reg__
 5205 19ee 00C0      		rjmp .L424
 5206               	.LVL420:
 5207               	.L535:
 5208               	.LM730:
 5209 19f0 2091 0000 		lds r18,RX_read
 5210 19f4 3091 0000 		lds r19,(RX_read)+1
 5211               	.L441:
 5212 19f8 8091 0000 		lds r24,RX_in
 5213 19fc 9091 0000 		lds r25,(RX_in)+1
 5214 1a00 8217      		cp r24,r18
 5215 1a02 9307      		cpc r25,r19
 5216 1a04 01F0      		breq .L441
 5217               	.LM731:
 5218 1a06 F901      		movw r30,r18
 5219 1a08 E050      		subi r30,lo8(-(RX_array))
 5220 1a0a F040      		sbci r31,hi8(-(RX_array))
 5221 1a0c E081      		ld r30,Z
 5222 1a0e EE23      		tst r30
 5223 1a10 01F4      		brne .+2
 5224 1a12 00C0      		rjmp .L537
 5225               	.LM732:
 5226 1a14 E430      		cpi r30,lo8(4)
 5227 1a16 01F4      		brne .+2
 5228 1a18 00C0      		rjmp .L538
 5229               	.LM733:
 5230 1a1a E231      		cpi r30,lo8(18)
 5231 1a1c 01F4      		brne .+2
 5232 1a1e 00C0      		rjmp .L539
 5233               	.LM734:
 5234 1a20 E331      		cpi r30,lo8(19)
 5235 1a22 01F4      		brne .+2
 5236 1a24 00C0      		rjmp .L540
 5237               	.LM735:
 5238 1a26 E230      		cpi r30,lo8(2)
 5239 1a28 01F4      		brne .+2
 5240 1a2a 00C0      		rjmp .L541
 5241               	.L450:
 5242               	.LM736:
 5243 1a2c F901      		movw r30,r18
 5244 1a2e E050      		subi r30,lo8(-(RX_array))
 5245 1a30 F040      		sbci r31,hi8(-(RX_array))
 5246 1a32 8081      		ld r24,Z
 5247 1a34 8730      		cpi r24,lo8(7)
 5248 1a36 01F4      		brne .+2
 5249 1a38 00C0      		rjmp .L542
 5250               	.L455:
 5251               	.LM737:
 5252 1a3a F901      		movw r30,r18
 5253 1a3c E050      		subi r30,lo8(-(RX_array))
 5254 1a3e F040      		sbci r31,hi8(-(RX_array))
 5255 1a40 8081      		ld r24,Z
 5256 1a42 8851      		subi r24,lo8(-(-24))
 5257 1a44 8230      		cpi r24,lo8(2)
 5258 1a46 00F4      		brsh .+2
 5259 1a48 00C0      		rjmp .L543
 5260               	.L462:
 5261               	.LM738:
 5262 1a4a A901      		movw r20,r18
 5263 1a4c F901      		movw r30,r18
 5264 1a4e E050      		subi r30,lo8(-(RX_array))
 5265 1a50 F040      		sbci r31,hi8(-(RX_array))
 5266 1a52 8081      		ld r24,Z
 5267 1a54 8031      		cpi r24,lo8(16)
 5268 1a56 01F4      		brne .+2
 5269 1a58 00C0      		rjmp .L544
 5270               	.L469:
 5271               	.LM739:
 5272 1a5a A901      		movw r20,r18
 5273 1a5c F901      		movw r30,r18
 5274 1a5e E050      		subi r30,lo8(-(RX_array))
 5275 1a60 F040      		sbci r31,hi8(-(RX_array))
 5276 1a62 8081      		ld r24,Z
 5277 1a64 8330      		cpi r24,lo8(3)
 5278 1a66 01F4      		brne .+2
 5279 1a68 00C0      		rjmp .L545
 5280               	.L472:
 5281               	.LM740:
 5282 1a6a A901      		movw r20,r18
 5283 1a6c F901      		movw r30,r18
 5284 1a6e E050      		subi r30,lo8(-(RX_array))
 5285 1a70 F040      		sbci r31,hi8(-(RX_array))
 5286 1a72 8081      		ld r24,Z
 5287 1a74 8530      		cpi r24,lo8(5)
 5288 1a76 01F4      		brne .+2
 5289 1a78 00C0      		rjmp .L546
 5290               	.L475:
 5291               	.LM741:
 5292 1a7a A901      		movw r20,r18
 5293 1a7c F901      		movw r30,r18
 5294 1a7e E050      		subi r30,lo8(-(RX_array))
 5295 1a80 F040      		sbci r31,hi8(-(RX_array))
 5296 1a82 E081      		ld r30,Z
 5297 1a84 EF30      		cpi r30,lo8(15)
 5298 1a86 01F4      		brne .+2
 5299 1a88 00C0      		rjmp .L547
 5300               	.L478:
 5301               	.LM742:
 5302 1a8a EC30      		cpi r30,lo8(12)
 5303 1a8c 01F0      		breq .+2
 5304 1a8e 00C0      		rjmp .L525
 5305 1a90 20E0      		ldi r18,lo8(0)
 5306               	.LVL421:
 5307               	.L482:
 5308               	.LM743:
 5309 1a92 4F5F      		subi r20,lo8(-(1))
 5310 1a94 5F4F      		sbci r21,hi8(-(1))
 5311               	.LM744:
 5312 1a96 E1E0      		ldi r30,hi8(416)
 5313 1a98 403A      		cpi r20,lo8(416)
 5314 1a9a 5E07      		cpc r21,r30
 5315 1a9c 00F0      		brlo .L488
 5316 1a9e 40E0      		ldi r20,lo8(0)
 5317 1aa0 50E0      		ldi r21,hi8(0)
 5318               	.L488:
 5319               	.LM745:
 5320 1aa2 8091 0000 		lds r24,RX_in
 5321 1aa6 9091 0000 		lds r25,(RX_in)+1
 5322 1aaa 4817      		cp r20,r24
 5323 1aac 5907      		cpc r21,r25
 5324 1aae 01F0      		breq .L488
 5325               	.LM746:
 5326 1ab0 2F5F      		subi r18,lo8(-(1))
 5327 1ab2 2530      		cpi r18,lo8(5)
 5328 1ab4 01F4      		brne .L482
 5329 1ab6 5093 0000 		sts (RX_read)+1,r21
 5330 1aba 4093 0000 		sts RX_read,r20
 5331               	.LM747:
 5332 1abe FA01      		movw r30,r20
 5333 1ac0 E050      		subi r30,lo8(-(RX_array))
 5334 1ac2 F040      		sbci r31,hi8(-(RX_array))
 5335 1ac4 DF01      		movw r26,r30
 5336 1ac6 1397      		sbiw r26,3
 5337 1ac8 9F01      		movw r18,r30
 5338               	.LVL422:
 5339 1aca 2250      		subi r18,lo8(-(-2))
 5340 1acc 3040      		sbci r19,hi8(-(-2))
 5341 1ace 8F01      		movw r16,r30
 5342               	.LVL423:
 5343 1ad0 0150      		subi r16,lo8(-(-1))
 5344 1ad2 1040      		sbci r17,hi8(-(-1))
 5345 1ad4 8081      		ld r24,Z
 5346 1ad6 3497      		sbiw r30,4
 5347 1ad8 6081      		ld r22,Z
 5348 1ada 4C91      		ld r20,X
 5349 1adc D901      		movw r26,r18
 5350 1ade 2C91      		ld r18,X
 5351 1ae0 F801      		movw r30,r16
 5352 1ae2 0081      		ld r16,Z
 5353 1ae4 0E94 0000 		call line
 5354               	.LM748:
 5355 1ae8 2091 0000 		lds r18,RX_read
 5356 1aec 3091 0000 		lds r19,(RX_read)+1
 5357 1af0 2F5F      		subi r18,lo8(-(1))
 5358 1af2 3F4F      		sbci r19,hi8(-(1))
 5359 1af4 3093 0000 		sts (RX_read)+1,r19
 5360 1af8 2093 0000 		sts RX_read,r18
 5361               	.LM749:
 5362 1afc F1E0      		ldi r31,hi8(416)
 5363 1afe 203A      		cpi r18,lo8(416)
 5364 1b00 3F07      		cpc r19,r31
 5365 1b02 00F4      		brsh .+2
 5366 1b04 00C0      		rjmp .L525
 5367               	.LVL424:
 5368               	.L528:
 5369 1b06 1092 0000 		sts (RX_read)+1,__zero_reg__
 5370 1b0a 1092 0000 		sts RX_read,__zero_reg__
 5371 1b0e 20E0      		ldi r18,lo8(0)
 5372 1b10 30E0      		ldi r19,hi8(0)
 5373 1b12 00C0      		rjmp .L525
 5374               	.L534:
 5375               	.LM750:
 5376 1b14 80E0      		ldi r24,lo8(0)
 5377 1b16 0E94 0000 		call del_char
 5378 1b1a 2091 0000 		lds r18,RX_read
 5379 1b1e 3091 0000 		lds r19,(RX_read)+1
 5380 1b22 00C0      		rjmp .L525
 5381               	.L537:
 5382               	.LM751:
 5383 1b24 0E94 0000 		call clear_screen
 5384               	.L531:
 5385               	.LM752:
 5386 1b28 2091 0000 		lds r18,RX_read
 5387 1b2c 3091 0000 		lds r19,(RX_read)+1
 5388 1b30 2F5F      		subi r18,lo8(-(1))
 5389 1b32 3F4F      		sbci r19,hi8(-(1))
 5390 1b34 3093 0000 		sts (RX_read)+1,r19
 5391 1b38 2093 0000 		sts RX_read,r18
 5392               	.LM753:
 5393 1b3c B1E0      		ldi r27,hi8(416)
 5394 1b3e 203A      		cpi r18,lo8(416)
 5395 1b40 3B07      		cpc r19,r27
 5396 1b42 00F4      		brsh .+2
 5397 1b44 00C0      		rjmp .L525
 5398 1b46 00C0      		rjmp .L528
 5399               	.L540:
 5400               	.LM754:
 5401 1b48 4091 0000 		lds r20,splash_screen
 5402 1b4c 81E0      		ldi r24,lo8(1)
 5403 1b4e 4827      		eor r20,r24
 5404 1b50 4093 0000 		sts splash_screen,r20
 5405               	.LM755:
 5406 1b54 C901      		movw r24,r18
 5407 1b56 0196      		adiw r24,1
 5408 1b58 9093 0000 		sts (RX_read)+1,r25
 5409 1b5c 8093 0000 		sts RX_read,r24
 5410               	.LM756:
 5411 1b60 805A      		subi r24,lo8(416)
 5412 1b62 9140      		sbci r25,hi8(416)
 5413 1b64 00F0      		brlo .L448
 5414 1b66 1092 0000 		sts (RX_read)+1,__zero_reg__
 5415 1b6a 1092 0000 		sts RX_read,__zero_reg__
 5416               	.L448:
 5417               	.LM757:
 5418               	/* #APP */
 5419               	 ;  470 "main.c" 1
 5420 1b6e F894      		cli
 5421               	 ;  0 "" 2
 5422               	/* #NOAPP */
 5423               	.L449:
 5424               	.LBB316:
 5425               	.LBB312:
 5426               	.LM758:
 5427 1b70 F999      		sbic 63-32,1
 5428 1b72 00C0      		rjmp .L449
 5429               	.LM759:
 5430 1b74 D2BC      		out (65)+1-32,r13
 5431 1b76 C1BC      		out 65-32,r12
 5432               	.LM760:
 5433 1b78 40BD      		out 64-32,r20
 5434               	.LM761:
 5435 1b7a FA9A      		sbi 63-32,2
 5436               	.LM762:
 5437 1b7c F99A      		sbi 63-32,1
 5438               	.LBE312:
 5439               	.LBE316:
 5440               	.LM763:
 5441               	/* #APP */
 5442               	 ;  472 "main.c" 1
 5443 1b7e 7894      		sei
 5444               	 ;  0 "" 2
 5445               	/* #NOAPP */
 5446 1b80 2091 0000 		lds r18,RX_read
 5447 1b84 3091 0000 		lds r19,(RX_read)+1
 5448 1b88 00C0      		rjmp .L525
 5449               	.L538:
 5450               	.LM764:
 5451 1b8a 1092 0000 		sts (RX_in)+1,__zero_reg__
 5452 1b8e 1092 0000 		sts RX_in,__zero_reg__
 5453 1b92 1092 0000 		sts (RX_read)+1,__zero_reg__
 5454 1b96 1092 0000 		sts RX_read,__zero_reg__
 5455               	.LM765:
 5456 1b9a 0E94 0000 		call demo
 5457               	.LM766:
 5458 1b9e 0E94 0000 		call clear_screen
 5459               	.LM767:
 5460 1ba2 1092 0000 		sts (RX_in)+1,__zero_reg__
 5461 1ba6 1092 0000 		sts RX_in,__zero_reg__
 5462 1baa 2091 0000 		lds r18,RX_read
 5463 1bae 3091 0000 		lds r19,(RX_read)+1
 5464 1bb2 00C0      		rjmp .L525
 5465               	.L546:
 5466               	.LM768:
 5467 1bb4 20E0      		ldi r18,lo8(0)
 5468               	.LVL425:
 5469               	.L477:
 5470               	.LM769:
 5471 1bb6 4F5F      		subi r20,lo8(-(1))
 5472 1bb8 5F4F      		sbci r21,hi8(-(1))
 5473               	.LM770:
 5474 1bba F1E0      		ldi r31,hi8(416)
 5475 1bbc 403A      		cpi r20,lo8(416)
 5476 1bbe 5F07      		cpc r21,r31
 5477 1bc0 00F0      		brlo .L489
 5478 1bc2 40E0      		ldi r20,lo8(0)
 5479 1bc4 50E0      		ldi r21,hi8(0)
 5480               	.L489:
 5481               	.LM771:
 5482 1bc6 8091 0000 		lds r24,RX_in
 5483 1bca 9091 0000 		lds r25,(RX_in)+1
 5484 1bce 8417      		cp r24,r20
 5485 1bd0 9507      		cpc r25,r21
 5486 1bd2 01F0      		breq .L489
 5487               	.LM772:
 5488 1bd4 2F5F      		subi r18,lo8(-(1))
 5489 1bd6 2430      		cpi r18,lo8(4)
 5490 1bd8 01F4      		brne .L477
 5491 1bda 5093 0000 		sts (RX_read)+1,r21
 5492 1bde 4093 0000 		sts RX_read,r20
 5493               	.LM773:
 5494 1be2 FA01      		movw r30,r20
 5495 1be4 E050      		subi r30,lo8(-(RX_array))
 5496 1be6 F040      		sbci r31,hi8(-(RX_array))
 5497 1be8 DF01      		movw r26,r30
 5498 1bea 1397      		sbiw r26,3
 5499 1bec 9F01      		movw r18,r30
 5500               	.LVL426:
 5501 1bee 2250      		subi r18,lo8(-(-2))
 5502 1bf0 3040      		sbci r19,hi8(-(-2))
 5503 1bf2 AF01      		movw r20,r30
 5504 1bf4 4150      		subi r20,lo8(-(-1))
 5505 1bf6 5040      		sbci r21,hi8(-(-1))
 5506 1bf8 8C91      		ld r24,X
 5507 1bfa D901      		movw r26,r18
 5508 1bfc 6C91      		ld r22,X
 5509 1bfe DA01      		movw r26,r20
 5510 1c00 4C91      		ld r20,X
 5511 1c02 2081      		ld r18,Z
 5512 1c04 0E94 0000 		call erase_block
 5513               	.LM774:
 5514 1c08 2091 0000 		lds r18,RX_read
 5515 1c0c 3091 0000 		lds r19,(RX_read)+1
 5516 1c10 2F5F      		subi r18,lo8(-(1))
 5517 1c12 3F4F      		sbci r19,hi8(-(1))
 5518 1c14 3093 0000 		sts (RX_read)+1,r19
 5519 1c18 2093 0000 		sts RX_read,r18
 5520               	.LM775:
 5521 1c1c B1E0      		ldi r27,hi8(416)
 5522 1c1e 203A      		cpi r18,lo8(416)
 5523 1c20 3B07      		cpc r19,r27
 5524 1c22 00F4      		brsh .+2
 5525 1c24 00C0      		rjmp .L475
 5526 1c26 1092 0000 		sts (RX_read)+1,__zero_reg__
 5527 1c2a 1092 0000 		sts RX_read,__zero_reg__
 5528 1c2e 20E0      		ldi r18,lo8(0)
 5529 1c30 30E0      		ldi r19,hi8(0)
 5530               	.LM776:
 5531 1c32 A901      		movw r20,r18
 5532 1c34 F901      		movw r30,r18
 5533 1c36 E050      		subi r30,lo8(-(RX_array))
 5534 1c38 F040      		sbci r31,hi8(-(RX_array))
 5535 1c3a E081      		ld r30,Z
 5536 1c3c EF30      		cpi r30,lo8(15)
 5537 1c3e 01F0      		breq .+2
 5538 1c40 00C0      		rjmp .L478
 5539               	.L547:
 5540 1c42 20E0      		ldi r18,lo8(0)
 5541               	.LVL427:
 5542               	.L480:
 5543               	.LM777:
 5544 1c44 4F5F      		subi r20,lo8(-(1))
 5545 1c46 5F4F      		sbci r21,hi8(-(1))
 5546               	.LM778:
 5547 1c48 E1E0      		ldi r30,hi8(416)
 5548 1c4a 403A      		cpi r20,lo8(416)
 5549 1c4c 5E07      		cpc r21,r30
 5550 1c4e 00F0      		brlo .L487
 5551 1c50 40E0      		ldi r20,lo8(0)
 5552 1c52 50E0      		ldi r21,hi8(0)
 5553               	.L487:
 5554               	.LM779:
 5555 1c54 8091 0000 		lds r24,RX_in
 5556 1c58 9091 0000 		lds r25,(RX_in)+1
 5557 1c5c 8417      		cp r24,r20
 5558 1c5e 9507      		cpc r25,r21
 5559 1c60 01F0      		breq .L487
 5560               	.LM780:
 5561 1c62 2F5F      		subi r18,lo8(-(1))
 5562 1c64 2430      		cpi r18,lo8(4)
 5563 1c66 01F4      		brne .L480
 5564 1c68 5093 0000 		sts (RX_read)+1,r21
 5565 1c6c 4093 0000 		sts RX_read,r20
 5566               	.LM781:
 5567 1c70 FA01      		movw r30,r20
 5568 1c72 E050      		subi r30,lo8(-(RX_array))
 5569 1c74 F040      		sbci r31,hi8(-(RX_array))
 5570 1c76 DF01      		movw r26,r30
 5571 1c78 1397      		sbiw r26,3
 5572 1c7a 9F01      		movw r18,r30
 5573               	.LVL428:
 5574 1c7c 2250      		subi r18,lo8(-(-2))
 5575 1c7e 3040      		sbci r19,hi8(-(-2))
 5576 1c80 AF01      		movw r20,r30
 5577 1c82 4150      		subi r20,lo8(-(-1))
 5578 1c84 5040      		sbci r21,hi8(-(-1))
 5579 1c86 8C91      		ld r24,X
 5580 1c88 D901      		movw r26,r18
 5581 1c8a 6C91      		ld r22,X
 5582 1c8c DA01      		movw r26,r20
 5583 1c8e 4C91      		ld r20,X
 5584 1c90 2081      		ld r18,Z
 5585 1c92 0E94 0000 		call box
 5586 1c96 00C0      		rjmp .L531
 5587               	.L545:
 5588               	.LM782:
 5589 1c98 20E0      		ldi r18,lo8(0)
 5590               	.LVL429:
 5591               	.L474:
 5592               	.LM783:
 5593 1c9a 4F5F      		subi r20,lo8(-(1))
 5594 1c9c 5F4F      		sbci r21,hi8(-(1))
 5595               	.LM784:
 5596 1c9e B1E0      		ldi r27,hi8(416)
 5597 1ca0 403A      		cpi r20,lo8(416)
 5598 1ca2 5B07      		cpc r21,r27
 5599 1ca4 00F0      		brlo .L490
 5600 1ca6 40E0      		ldi r20,lo8(0)
 5601 1ca8 50E0      		ldi r21,hi8(0)
 5602               	.L490:
 5603               	.LM785:
 5604 1caa 8091 0000 		lds r24,RX_in
 5605 1cae 9091 0000 		lds r25,(RX_in)+1
 5606 1cb2 8417      		cp r24,r20
 5607 1cb4 9507      		cpc r25,r21
 5608 1cb6 01F0      		breq .L490
 5609               	.LM786:
 5610 1cb8 2F5F      		subi r18,lo8(-(1))
 5611 1cba 2430      		cpi r18,lo8(4)
 5612 1cbc 01F4      		brne .L474
 5613 1cbe 4093 0000 		sts RX_read,r20
 5614 1cc2 5093 0000 		sts RX_read+1,r21
 5615               	.LM787:
 5616 1cc6 FA01      		movw r30,r20
 5617 1cc8 E050      		subi r30,lo8(-(RX_array))
 5618 1cca F040      		sbci r31,hi8(-(RX_array))
 5619 1ccc 3397      		sbiw r30,3
 5620 1cce 6191      		ld r22,Z+
 5621 1cd0 4081      		ld r20,Z
 5622 1cd2 3296      		adiw r30,2
 5623 1cd4 2291      		ld r18,-Z
 5624               	.LVL430:
 5625 1cd6 3196      		adiw r30,1
 5626 1cd8 8081      		ld r24,Z
 5627 1cda 70E0      		ldi r23,lo8(0)
 5628 1cdc 50E0      		ldi r21,lo8(0)
 5629 1cde 30E0      		ldi r19,lo8(0)
 5630 1ce0 0E94 0000 		call circle
 5631               	.LM788:
 5632 1ce4 2091 0000 		lds r18,RX_read
 5633 1ce8 3091 0000 		lds r19,(RX_read)+1
 5634 1cec 2F5F      		subi r18,lo8(-(1))
 5635 1cee 3F4F      		sbci r19,hi8(-(1))
 5636 1cf0 3093 0000 		sts (RX_read)+1,r19
 5637 1cf4 2093 0000 		sts RX_read,r18
 5638               	.LM789:
 5639 1cf8 E1E0      		ldi r30,hi8(416)
 5640 1cfa 203A      		cpi r18,lo8(416)
 5641 1cfc 3E07      		cpc r19,r30
 5642 1cfe 00F4      		brsh .+2
 5643 1d00 00C0      		rjmp .L472
 5644 1d02 1092 0000 		sts (RX_read)+1,__zero_reg__
 5645 1d06 1092 0000 		sts RX_read,__zero_reg__
 5646 1d0a 20E0      		ldi r18,lo8(0)
 5647 1d0c 30E0      		ldi r19,hi8(0)
 5648 1d0e 00C0      		rjmp .L472
 5649               	.L544:
 5650               	.LM790:
 5651 1d10 20E0      		ldi r18,lo8(0)
 5652               	.LVL431:
 5653               	.L471:
 5654               	.LM791:
 5655 1d12 4F5F      		subi r20,lo8(-(1))
 5656 1d14 5F4F      		sbci r21,hi8(-(1))
 5657               	.LM792:
 5658 1d16 81E0      		ldi r24,hi8(416)
 5659 1d18 403A      		cpi r20,lo8(416)
 5660 1d1a 5807      		cpc r21,r24
 5661 1d1c 00F0      		brlo .L491
 5662 1d1e 40E0      		ldi r20,lo8(0)
 5663 1d20 50E0      		ldi r21,hi8(0)
 5664               	.L491:
 5665               	.LM793:
 5666 1d22 8091 0000 		lds r24,RX_in
 5667 1d26 9091 0000 		lds r25,(RX_in)+1
 5668 1d2a 8417      		cp r24,r20
 5669 1d2c 9507      		cpc r25,r21
 5670 1d2e 01F0      		breq .L491
 5671               	.LM794:
 5672 1d30 2F5F      		subi r18,lo8(-(1))
 5673 1d32 2330      		cpi r18,lo8(3)
 5674 1d34 01F4      		brne .L471
 5675 1d36 4093 0000 		sts RX_read,r20
 5676 1d3a 5093 0000 		sts RX_read+1,r21
 5677               	.LM795:
 5678 1d3e FA01      		movw r30,r20
 5679 1d40 E050      		subi r30,lo8(-(RX_array))
 5680 1d42 F040      		sbci r31,hi8(-(RX_array))
 5681 1d44 DF01      		movw r26,r30
 5682 1d46 1197      		sbiw r26,1
 5683 1d48 8081      		ld r24,Z
 5684 1d4a 3297      		sbiw r30,2
 5685 1d4c 6081      		ld r22,Z
 5686 1d4e 4C91      		ld r20,X
 5687 1d50 0E94 0000 		call pixel
 5688               	.LVL432:
 5689               	.LM796:
 5690 1d54 2091 0000 		lds r18,RX_read
 5691 1d58 3091 0000 		lds r19,(RX_read)+1
 5692 1d5c 2F5F      		subi r18,lo8(-(1))
 5693 1d5e 3F4F      		sbci r19,hi8(-(1))
 5694 1d60 3093 0000 		sts (RX_read)+1,r19
 5695 1d64 2093 0000 		sts RX_read,r18
 5696               	.LM797:
 5697 1d68 A1E0      		ldi r26,hi8(416)
 5698 1d6a 203A      		cpi r18,lo8(416)
 5699 1d6c 3A07      		cpc r19,r26
 5700 1d6e 00F4      		brsh .+2
 5701 1d70 00C0      		rjmp .L469
 5702 1d72 1092 0000 		sts (RX_read)+1,__zero_reg__
 5703 1d76 1092 0000 		sts RX_read,__zero_reg__
 5704 1d7a 20E0      		ldi r18,lo8(0)
 5705 1d7c 30E0      		ldi r19,hi8(0)
 5706 1d7e 00C0      		rjmp .L469
 5707               	.L542:
 5708               	.LM798:
 5709 1d80 C901      		movw r24,r18
 5710 1d82 0196      		adiw r24,1
 5711 1d84 9093 0000 		sts (RX_read)+1,r25
 5712 1d88 8093 0000 		sts RX_read,r24
 5713               	.LM799:
 5714 1d8c 805A      		subi r24,lo8(416)
 5715 1d8e 9140      		sbci r25,hi8(416)
 5716 1d90 00F0      		brlo .L456
 5717 1d92 1092 0000 		sts (RX_read)+1,__zero_reg__
 5718 1d96 1092 0000 		sts RX_read,__zero_reg__
 5719               	.L456:
 5720               	.LM800:
 5721 1d9a E091 0000 		lds r30,RX_read
 5722 1d9e F091 0000 		lds r31,(RX_read)+1
 5723               	.L457:
 5724 1da2 8091 0000 		lds r24,RX_in
 5725 1da6 9091 0000 		lds r25,(RX_in)+1
 5726 1daa 8E17      		cp r24,r30
 5727 1dac 9F07      		cpc r25,r31
 5728 1dae 01F0      		breq .L457
 5729               	.LM801:
 5730 1db0 E050      		subi r30,lo8(-(RX_array))
 5731 1db2 F040      		sbci r31,hi8(-(RX_array))
 5732 1db4 4081      		ld r20,Z
 5733 1db6 60E0      		ldi r22,lo8(0)
 5734 1db8 70E0      		ldi r23,hi8(0)
 5735 1dba 4733      		cpi r20,lo8(55)
 5736 1dbc 00F4      		brsh .L459
 5737 1dbe 61E0      		ldi r22,lo8(1)
 5738 1dc0 70E0      		ldi r23,hi8(1)
 5739               	.L459:
 5740 1dc2 20E0      		ldi r18,lo8(0)
 5741 1dc4 30E0      		ldi r19,hi8(0)
 5742 1dc6 4133      		cpi r20,lo8(49)
 5743 1dc8 00F0      		brlo .L460
 5744 1dca 21E0      		ldi r18,lo8(1)
 5745 1dcc 30E0      		ldi r19,hi8(1)
 5746               	.L460:
 5747 1dce 629F      		mul r22,r18
 5748 1dd0 C001      		movw r24,r0
 5749 1dd2 639F      		mul r22,r19
 5750 1dd4 900D      		add r25,r0
 5751 1dd6 729F      		mul r23,r18
 5752 1dd8 900D      		add r25,r0
 5753 1dda 1124      		clr r1
 5754 1ddc 892B      		or r24,r25
 5755 1dde 01F0      		breq .L458
 5756 1de0 4053      		subi r20,lo8(-(-48))
 5757 1de2 4093 0000 		sts baud_rate,r20
 5758               	.L458:
 5759               	.LM802:
 5760 1de6 8091 0000 		lds r24,baud_rate
 5761 1dea 0E94 0000 		call set_baud
 5762               	.LM803:
 5763               	/* #APP */
 5764               	 ;  516 "main.c" 1
 5765 1dee F894      		cli
 5766               	 ;  0 "" 2
 5767               	.LM804:
 5768               	/* #NOAPP */
 5769 1df0 8091 0000 		lds r24,baud_rate
 5770               	.L461:
 5771               	.LBB317:
 5772               	.LBB318:
 5773               	.LM805:
 5774 1df4 F999      		sbic 63-32,1
 5775 1df6 00C0      		rjmp .L461
 5776               	.LM806:
 5777 1df8 12BC      		out (65)+1-32,__zero_reg__
 5778 1dfa 11BC      		out 65-32,__zero_reg__
 5779               	.LM807:
 5780 1dfc 80BD      		out 64-32,r24
 5781               	.LM808:
 5782 1dfe FA9A      		sbi 63-32,2
 5783               	.LM809:
 5784 1e00 F99A      		sbi 63-32,1
 5785               	.LBE318:
 5786               	.LBE317:
 5787               	.LM810:
 5788               	/* #APP */
 5789               	 ;  518 "main.c" 1
 5790 1e02 7894      		sei
 5791               	 ;  0 "" 2
 5792               	.LM811:
 5793               	/* #NOAPP */
 5794 1e04 2091 0000 		lds r18,RX_read
 5795 1e08 3091 0000 		lds r19,(RX_read)+1
 5796 1e0c 2F5F      		subi r18,lo8(-(1))
 5797 1e0e 3F4F      		sbci r19,hi8(-(1))
 5798 1e10 3093 0000 		sts (RX_read)+1,r19
 5799 1e14 2093 0000 		sts RX_read,r18
 5800               	.LM812:
 5801 1e18 E1E0      		ldi r30,hi8(416)
 5802 1e1a 203A      		cpi r18,lo8(416)
 5803 1e1c 3E07      		cpc r19,r30
 5804 1e1e 00F4      		brsh .+2
 5805 1e20 00C0      		rjmp .L455
 5806 1e22 1092 0000 		sts (RX_read)+1,__zero_reg__
 5807 1e26 1092 0000 		sts RX_read,__zero_reg__
 5808 1e2a 20E0      		ldi r18,lo8(0)
 5809 1e2c 30E0      		ldi r19,hi8(0)
 5810               	.LM813:
 5811 1e2e F901      		movw r30,r18
 5812 1e30 E050      		subi r30,lo8(-(RX_array))
 5813 1e32 F040      		sbci r31,hi8(-(RX_array))
 5814 1e34 8081      		ld r24,Z
 5815 1e36 8851      		subi r24,lo8(-(-24))
 5816 1e38 8230      		cpi r24,lo8(2)
 5817 1e3a 00F0      		brlo .+2
 5818 1e3c 00C0      		rjmp .L462
 5819               	.L543:
 5820               	.LM814:
 5821 1e3e C901      		movw r24,r18
 5822 1e40 0196      		adiw r24,1
 5823 1e42 9093 0000 		sts (RX_read)+1,r25
 5824 1e46 8093 0000 		sts RX_read,r24
 5825               	.LM815:
 5826 1e4a 805A      		subi r24,lo8(416)
 5827 1e4c 9140      		sbci r25,hi8(416)
 5828 1e4e 00F0      		brlo .L463
 5829 1e50 1092 0000 		sts (RX_read)+1,__zero_reg__
 5830 1e54 1092 0000 		sts RX_read,__zero_reg__
 5831               	.L463:
 5832               	.LM816:
 5833 1e58 2091 0000 		lds r18,RX_read
 5834 1e5c 3091 0000 		lds r19,(RX_read)+1
 5835               	.L464:
 5836 1e60 8091 0000 		lds r24,RX_in
 5837 1e64 9091 0000 		lds r25,(RX_in)+1
 5838 1e68 8217      		cp r24,r18
 5839 1e6a 9307      		cpc r25,r19
 5840 1e6c 01F0      		breq .L464
 5841               	.LM817:
 5842 1e6e F901      		movw r30,r18
 5843 1e70 E050      		subi r30,lo8(-(RX_array))
 5844 1e72 F040      		sbci r31,hi8(-(RX_array))
 5845 1e74 8291      		ld r24,-Z
 5846 1e76 3196      		adiw r30,1
 5847 1e78 8831      		cpi r24,lo8(24)
 5848 1e7a 01F4      		brne .+2
 5849 1e7c 00C0      		rjmp .L548
 5850               	.LM818:
 5851 1e7e 8931      		cpi r24,lo8(25)
 5852 1e80 01F4      		brne .+2
 5853 1e82 00C0      		rjmp .L549
 5854               	.L466:
 5855               	.LM819:
 5856 1e84 C901      		movw r24,r18
 5857 1e86 0196      		adiw r24,1
 5858 1e88 9093 0000 		sts (RX_read)+1,r25
 5859 1e8c 8093 0000 		sts RX_read,r24
 5860               	.LM820:
 5861 1e90 805A      		subi r24,lo8(416)
 5862 1e92 9140      		sbci r25,hi8(416)
 5863 1e94 00F0      		brlo .L467
 5864 1e96 1092 0000 		sts (RX_read)+1,__zero_reg__
 5865 1e9a 1092 0000 		sts RX_read,__zero_reg__
 5866               	.L467:
 5867               	.LM821:
 5868 1e9e 8091 0000 		lds r24,x_offset
 5869 1ea2 803A      		cpi r24,lo8(-96)
 5870 1ea4 00F0      		brlo .L468
 5871 1ea6 E092 0000 		sts x_offset,r14
 5872               	.L468:
 5873               	.LM822:
 5874 1eaa 8091 0000 		lds r24,y_offset
 5875 1eae 8823      		tst r24
 5876 1eb0 04F4      		brge .+2
 5877 1eb2 00C0      		rjmp .L527
 5878               	.L529:
 5879 1eb4 2091 0000 		lds r18,RX_read
 5880 1eb8 3091 0000 		lds r19,(RX_read)+1
 5881 1ebc 00C0      		rjmp .L462
 5882               	.L541:
 5883               	.LM823:
 5884 1ebe C901      		movw r24,r18
 5885 1ec0 0196      		adiw r24,1
 5886 1ec2 9093 0000 		sts (RX_read)+1,r25
 5887 1ec6 8093 0000 		sts RX_read,r24
 5888               	.LM824:
 5889 1eca 805A      		subi r24,lo8(416)
 5890 1ecc 9140      		sbci r25,hi8(416)
 5891 1ece 00F0      		brlo .L451
 5892 1ed0 1092 0000 		sts (RX_read)+1,__zero_reg__
 5893 1ed4 1092 0000 		sts RX_read,__zero_reg__
 5894               	.L451:
 5895               	.LM825:
 5896 1ed8 2091 0000 		lds r18,RX_read
 5897 1edc 3091 0000 		lds r19,(RX_read)+1
 5898               	.L452:
 5899 1ee0 8091 0000 		lds r24,RX_in
 5900 1ee4 9091 0000 		lds r25,(RX_in)+1
 5901 1ee8 8217      		cp r24,r18
 5902 1eea 9307      		cpc r25,r19
 5903 1eec 01F0      		breq .L452
 5904               	.LM826:
 5905 1eee F901      		movw r30,r18
 5906 1ef0 E050      		subi r30,lo8(-(RX_array))
 5907 1ef2 F040      		sbci r31,hi8(-(RX_array))
 5908 1ef4 E081      		ld r30,Z
 5909 1ef6 E093 0000 		sts BL_dutycycle,r30
 5910               	.LM827:
 5911 1efa C901      		movw r24,r18
 5912 1efc 0196      		adiw r24,1
 5913 1efe 9093 0000 		sts (RX_read)+1,r25
 5914 1f02 8093 0000 		sts RX_read,r24
 5915               	.LM828:
 5916 1f06 805A      		subi r24,lo8(416)
 5917 1f08 9140      		sbci r25,hi8(416)
 5918 1f0a 00F0      		brlo .L453
 5919 1f0c 1092 0000 		sts (RX_read)+1,__zero_reg__
 5920 1f10 1092 0000 		sts RX_read,__zero_reg__
 5921               	.L453:
 5922               	.LM829:
 5923 1f14 8E2F      		mov r24,r30
 5924 1f16 0E94 0000 		call set_backlight
 5925               	.LM830:
 5926               	/* #APP */
 5927               	 ;  490 "main.c" 1
 5928 1f1a F894      		cli
 5929               	 ;  0 "" 2
 5930               	.LM831:
 5931               	/* #NOAPP */
 5932 1f1c 8091 0000 		lds r24,BL_dutycycle
 5933               	.L454:
 5934               	.LBB319:
 5935               	.LBB320:
 5936               	.LM832:
 5937 1f20 F999      		sbic 63-32,1
 5938 1f22 00C0      		rjmp .L454
 5939               	.LM833:
 5940 1f24 D2BD      		out (65)+1-32,r29
 5941 1f26 C1BD      		out 65-32,r28
 5942               	.LM834:
 5943 1f28 80BD      		out 64-32,r24
 5944               	.LM835:
 5945 1f2a FA9A      		sbi 63-32,2
 5946               	.LM836:
 5947 1f2c F99A      		sbi 63-32,1
 5948               	.LBE320:
 5949               	.LBE319:
 5950               	.LM837:
 5951               	/* #APP */
 5952               	 ;  492 "main.c" 1
 5953 1f2e 7894      		sei
 5954               	 ;  0 "" 2
 5955               	/* #NOAPP */
 5956 1f30 2091 0000 		lds r18,RX_read
 5957 1f34 3091 0000 		lds r19,(RX_read)+1
 5958 1f38 00C0      		rjmp .L450
 5959               	.L539:
 5960               	.LM838:
 5961 1f3a 8091 0000 		lds r24,reverse
 5962 1f3e 91E0      		ldi r25,lo8(1)
 5963 1f40 8927      		eor r24,r25
 5964 1f42 8093 0000 		sts reverse,r24
 5965               	.LM839:
 5966 1f46 0E94 0000 		call clear_screen
 5967               	.LM840:
 5968 1f4a 2091 0000 		lds r18,RX_read
 5969 1f4e 3091 0000 		lds r19,(RX_read)+1
 5970 1f52 2F5F      		subi r18,lo8(-(1))
 5971 1f54 3F4F      		sbci r19,hi8(-(1))
 5972 1f56 3093 0000 		sts (RX_read)+1,r19
 5973 1f5a 2093 0000 		sts RX_read,r18
 5974               	.LM841:
 5975 1f5e E1E0      		ldi r30,hi8(416)
 5976 1f60 203A      		cpi r18,lo8(416)
 5977 1f62 3E07      		cpc r19,r30
 5978 1f64 00F0      		brlo .L445
 5979 1f66 1092 0000 		sts (RX_read)+1,__zero_reg__
 5980 1f6a 1092 0000 		sts RX_read,__zero_reg__
 5981 1f6e 20E0      		ldi r18,lo8(0)
 5982 1f70 30E0      		ldi r19,hi8(0)
 5983               	.L445:
 5984               	.LM842:
 5985               	/* #APP */
 5986               	 ;  456 "main.c" 1
 5987 1f72 F894      		cli
 5988               	 ;  0 "" 2
 5989               	.LM843:
 5990               	/* #NOAPP */
 5991 1f74 8091 0000 		lds r24,reverse
 5992               	.L446:
 5993               	.LBB321:
 5994               	.LBB315:
 5995               	.LM844:
 5996 1f78 F999      		sbic 63-32,1
 5997 1f7a 00C0      		rjmp .L446
 5998               	.LM845:
 5999 1f7c B2BC      		out (65)+1-32,r11
 6000 1f7e A1BC      		out 65-32,r10
 6001               	.LM846:
 6002 1f80 80BD      		out 64-32,r24
 6003               	.LM847:
 6004 1f82 FA9A      		sbi 63-32,2
 6005               	.LM848:
 6006 1f84 F99A      		sbi 63-32,1
 6007               	.LBE315:
 6008               	.LBE321:
 6009               	.LM849:
 6010               	/* #APP */
 6011               	 ;  458 "main.c" 1
 6012 1f86 7894      		sei
 6013               	 ;  0 "" 2
 6014               	/* #NOAPP */
 6015 1f88 00C0      		rjmp .L525
 6016               	.L548:
 6017               	.LM850:
 6018 1f8a 8081      		ld r24,Z
 6019 1f8c 8093 0000 		sts x_offset,r24
 6020 1f90 00C0      		rjmp .L466
 6021               	.L527:
 6022               	.LM851:
 6023 1f92 F092 0000 		sts y_offset,r15
 6024 1f96 00C0      		rjmp .L529
 6025               	.L549:
 6026               	.LM852:
 6027 1f98 8081      		ld r24,Z
 6028 1f9a 8093 0000 		sts y_offset,r24
 6029 1f9e 00C0      		rjmp .L466
 6030               	.LVL433:
 6031               	.L433:
 6032               	.LM853:
 6033 1fa0 8091 0000 		lds r24,baud_rate
 6034 1fa4 0E94 0000 		call set_baud
 6035 1fa8 00C0      		rjmp .L435
 6036               	.LVL434:
 6037               	.L532:
 6038               	.LM854:
 6039 1faa 4398      		cbi 40-32,3
 6040               	.LM855:
 6041 1fac 82E3      		ldi r24,lo8(50)
 6042 1fae 90E0      		ldi r25,hi8(50)
 6043 1fb0 0E94 0000 		call delay_ms
 6044               	.LVL435:
 6045               	.LM856:
 6046 1fb4 439A      		sbi 40-32,3
 6047               	.LM857:
 6048 1fb6 0E94 0000 		call clear_screen
 6049               	.LM858:
 6050 1fba 80E0      		ldi r24,lo8(0)
 6051 1fbc 0E94 0000 		call set_page
 6052               	.LM859:
 6053 1fc0 80E0      		ldi r24,lo8(0)
 6054 1fc2 0E94 0000 		call set_x
 6055               	.LM860:
 6056 1fc6 0E94 0000 		call display_on
 6057               	.LM861:
 6058 1fca 88B1      		in r24,40-32
 6059 1fcc 887F      		andi r24,lo8(-8)
 6060 1fce 88B9      		out 40-32,r24
 6061               	.LBB322:
 6062               	.LBB323:
 6063               	.LM862:
 6064 1fd0 85B1      		in r24,37-32
 6065 1fd2 8C7F      		andi r24,lo8(-4)
 6066 1fd4 85B9      		out 37-32,r24
 6067               	.LM863:
 6068 1fd6 8BB1      		in r24,43-32
 6069 1fd8 8370      		andi r24,lo8(3)
 6070 1fda 8BB9      		out 43-32,r24
 6071               	.LM864:
 6072 1fdc 85B1      		in r24,37-32
 6073 1fde 85B9      		out 37-32,r24
 6074               	.LM865:
 6075 1fe0 8BB1      		in r24,43-32
 6076 1fe2 806C      		ori r24,lo8(-64)
 6077 1fe4 8BB9      		out 43-32,r24
 6078 1fe6 80E0      		ldi r24,lo8(0)
 6079               	.LVL436:
 6080               	.L417:
 6081               	.LBE323:
 6082               	.LBE322:
 6083               	.LBB324:
 6084               	.LBB325:
 6085               	.LM866:
 6086               	/* #APP */
 6087               	 ;  759 "main.c" 1
 6088 1fe8 0000      		nop
 6089               	 ;  0 "" 2
 6090               	.LM867:
 6091               	/* #NOAPP */
 6092 1fea 8F5F      		subi r24,lo8(-(1))
 6093 1fec 8E31      		cpi r24,lo8(30)
 6094 1fee 01F4      		brne .L417
 6095               	.LBE325:
 6096               	.LBE324:
 6097               	.LM868:
 6098 1ff0 409A      		sbi 40-32,0
 6099 1ff2 80E0      		ldi r24,lo8(0)
 6100               	.LVL437:
 6101               	.L418:
 6102               	.LBB326:
 6103               	.LBB327:
 6104               	.LM869:
 6105               	/* #APP */
 6106               	 ;  759 "main.c" 1
 6107 1ff4 0000      		nop
 6108               	 ;  0 "" 2
 6109               	.LM870:
 6110               	/* #NOAPP */
 6111 1ff6 8F5F      		subi r24,lo8(-(1))
 6112 1ff8 8E31      		cpi r24,lo8(30)
 6113 1ffa 01F4      		brne .L418
 6114               	.LBE327:
 6115               	.LBE326:
 6116               	.LM871:
 6117 1ffc 4098      		cbi 40-32,0
 6118 1ffe 80E0      		ldi r24,lo8(0)
 6119               	.LVL438:
 6120               	.L419:
 6121               	.LBB328:
 6122               	.LBB329:
 6123               	.LM872:
 6124               	/* #APP */
 6125               	 ;  759 "main.c" 1
 6126 2000 0000      		nop
 6127               	 ;  0 "" 2
 6128               	.LM873:
 6129               	/* #NOAPP */
 6130 2002 8F5F      		subi r24,lo8(-(1))
 6131 2004 8E31      		cpi r24,lo8(30)
 6132 2006 01F4      		brne .L419
 6133               	.LBE329:
 6134               	.LBE328:
 6135               	.LM874:
 6136 2008 88B1      		in r24,40-32
 6137               	.LVL439:
 6138 200a 8760      		ori r24,lo8(7)
 6139 200c 88B9      		out 40-32,r24
 6140 200e 80E0      		ldi r24,lo8(0)
 6141               	.LVL440:
 6142               	.L420:
 6143               	.LBB330:
 6144               	.LBB331:
 6145               	.LM875:
 6146               	/* #APP */
 6147               	 ;  759 "main.c" 1
 6148 2010 0000      		nop
 6149               	 ;  0 "" 2
 6150               	.LM876:
 6151               	/* #NOAPP */
 6152 2012 8F5F      		subi r24,lo8(-(1))
 6153 2014 8E31      		cpi r24,lo8(30)
 6154 2016 01F4      		brne .L420
 6155               	.LBE331:
 6156               	.LBE330:
 6157               	.LM877:
 6158 2018 1092 0000 		sts x_offset,__zero_reg__
 6159               	.LM878:
 6160 201c 80E0      		ldi r24,lo8(0)
 6161               	.LVL441:
 6162 201e 0E94 0000 		call set_page
 6163 2022 00C0      		rjmp .L421
 6164               	.LFE6:
 6166               	.global	x_offset
 6167               	.global	x_offset
 6168               		.section .bss
 6171               	x_offset:
 6172 0000 00        		.skip 1,0
 6173               	.global	y_offset
 6174               		.data
 6177               	y_offset:
 6178 0000 3F        		.byte	63
 6179               	.global	side_mark
 6182               	side_mark:
 6183 0001 01        		.byte	1
 6184               	.global	page_mark
 6185               	.global	page_mark
 6186               		.section .bss
 6189               	page_mark:
 6190 0001 00        		.skip 1,0
 6191               	.global	baud_rate
 6192               		.data
 6195               	baud_rate:
 6196 0002 06        		.byte	6
 6197               	.global	reverse
 6198               	.global	reverse
 6199               		.section .bss
 6202               	reverse:
 6203 0002 00        		.skip 1,0
 6204               	.global	display
 6205               	.global	display
 6208               	display:
 6209 0003 00        		.skip 1,0
 6210               	.global	RX_in
 6211               	.global	RX_in
 6214               	RX_in:
 6215 0004 0000      		.skip 2,0
 6216               	.global	RX_read
 6217               	.global	RX_read
 6220               	RX_read:
 6221 0006 0000      		.skip 2,0
 6222               	.global	BL_dutycycle
 6223               		.data
 6226               	BL_dutycycle:
 6227 0003 64        		.byte	100
 6228               	.global	splash_screen
 6231               	splash_screen:
 6232 0004 01        		.byte	1
 6233               		.lcomm temp_y.2242,1
 6234               		.lcomm temp_x.2241,1
 6237               	logo:
 6238 0005 01        		.byte	1
 6239 0006 C0        		.byte	-64
 6240 0007 03        		.byte	3
 6241 0008 80        		.byte	-128
 6242 0009 03        		.byte	3
 6243 000a 80        		.byte	-128
 6244 000b 01        		.byte	1
 6245 000c D0        		.byte	-48
 6246 000d 01        		.byte	1
 6247 000e F8        		.byte	-8
 6248 000f 0C        		.byte	12
 6249 0010 F8        		.byte	-8
 6250 0011 18        		.byte	24
 6251 0012 F8        		.byte	-8
 6252 0013 1F        		.byte	31
 6253 0014 F8        		.byte	-8
 6254 0015 1F        		.byte	31
 6255 0016 F8        		.byte	-8
 6256 0017 1F        		.byte	31
 6257 0018 F0        		.byte	-16
 6258 0019 1F        		.byte	31
 6259 001a E0        		.byte	-32
 6260 001b 1F        		.byte	31
 6261 001c C0        		.byte	-64
 6262 001d 1C        		.byte	28
 6263 001e 00        		.byte	0
 6264 001f 18        		.byte	24
 6265 0020 00        		.byte	0
 6266 0021 10        		.byte	16
 6267 0022 00        		.byte	0
 6268               		.lcomm temp_data2.1842,1
 6269               		.lcomm temp_data1.1841,1
 6270               		.lcomm temp_x.1840,1
 6271               		.lcomm temp_side.1839,1
 6272               		.lcomm temp_page.1838,1
 6275               	text_array:
 6276 0023 00        		.byte	0
 6277 0024 00        		.byte	0
 6278 0025 00        		.byte	0
 6279 0026 00        		.byte	0
 6280 0027 00        		.byte	0
 6281 0028 00        		.byte	0
 6282 0029 F6        		.byte	-10
 6283 002a F6        		.byte	-10
 6284 002b 00        		.byte	0
 6285 002c 00        		.byte	0
 6286 002d 00        		.byte	0
 6287 002e E0        		.byte	-32
 6288 002f 00        		.byte	0
 6289 0030 E0        		.byte	-32
 6290 0031 00        		.byte	0
 6291 0032 28        		.byte	40
 6292 0033 FE        		.byte	-2
 6293 0034 28        		.byte	40
 6294 0035 FE        		.byte	-2
 6295 0036 28        		.byte	40
 6296 0037 00        		.byte	0
 6297 0038 64        		.byte	100
 6298 0039 D6        		.byte	-42
 6299 003a 54        		.byte	84
 6300 003b 08        		.byte	8
 6301 003c C2        		.byte	-62
 6302 003d CC        		.byte	-52
 6303 003e 10        		.byte	16
 6304 003f 26        		.byte	38
 6305 0040 C6        		.byte	-58
 6306 0041 4C        		.byte	76
 6307 0042 B2        		.byte	-78
 6308 0043 92        		.byte	-110
 6309 0044 6C        		.byte	108
 6310 0045 0A        		.byte	10
 6311 0046 00        		.byte	0
 6312 0047 00        		.byte	0
 6313 0048 E0        		.byte	-32
 6314 0049 00        		.byte	0
 6315 004a 00        		.byte	0
 6316 004b 00        		.byte	0
 6317 004c 38        		.byte	56
 6318 004d 44        		.byte	68
 6319 004e 82        		.byte	-126
 6320 004f 00        		.byte	0
 6321 0050 00        		.byte	0
 6322 0051 82        		.byte	-126
 6323 0052 44        		.byte	68
 6324 0053 38        		.byte	56
 6325 0054 00        		.byte	0
 6326 0055 88        		.byte	-120
 6327 0056 50        		.byte	80
 6328 0057 F8        		.byte	-8
 6329 0058 50        		.byte	80
 6330 0059 88        		.byte	-120
 6331 005a 08        		.byte	8
 6332 005b 08        		.byte	8
 6333 005c 3E        		.byte	62
 6334 005d 08        		.byte	8
 6335 005e 08        		.byte	8
 6336 005f 00        		.byte	0
 6337 0060 00        		.byte	0
 6338 0061 05        		.byte	5
 6339 0062 06        		.byte	6
 6340 0063 00        		.byte	0
 6341 0064 08        		.byte	8
 6342 0065 08        		.byte	8
 6343 0066 08        		.byte	8
 6344 0067 08        		.byte	8
 6345 0068 08        		.byte	8
 6346 0069 00        		.byte	0
 6347 006a 00        		.byte	0
 6348 006b 06        		.byte	6
 6349 006c 06        		.byte	6
 6350 006d 00        		.byte	0
 6351 006e 02        		.byte	2
 6352 006f 0C        		.byte	12
 6353 0070 10        		.byte	16
 6354 0071 60        		.byte	96
 6355 0072 80        		.byte	-128
 6356 0073 7C        		.byte	124
 6357 0074 8A        		.byte	-118
 6358 0075 92        		.byte	-110
 6359 0076 A2        		.byte	-94
 6360 0077 7C        		.byte	124
 6361 0078 00        		.byte	0
 6362 0079 42        		.byte	66
 6363 007a FE        		.byte	-2
 6364 007b 02        		.byte	2
 6365 007c 00        		.byte	0
 6366 007d 42        		.byte	66
 6367 007e 86        		.byte	-122
 6368 007f 8A        		.byte	-118
 6369 0080 92        		.byte	-110
 6370 0081 62        		.byte	98
 6371 0082 44        		.byte	68
 6372 0083 82        		.byte	-126
 6373 0084 92        		.byte	-110
 6374 0085 92        		.byte	-110
 6375 0086 6C        		.byte	108
 6376 0087 10        		.byte	16
 6377 0088 30        		.byte	48
 6378 0089 50        		.byte	80
 6379 008a FE        		.byte	-2
 6380 008b 10        		.byte	16
 6381 008c E4        		.byte	-28
 6382 008d A2        		.byte	-94
 6383 008e A2        		.byte	-94
 6384 008f A2        		.byte	-94
 6385 0090 9C        		.byte	-100
 6386 0091 3C        		.byte	60
 6387 0092 52        		.byte	82
 6388 0093 92        		.byte	-110
 6389 0094 92        		.byte	-110
 6390 0095 0C        		.byte	12
 6391 0096 80        		.byte	-128
 6392 0097 86        		.byte	-122
 6393 0098 98        		.byte	-104
 6394 0099 E0        		.byte	-32
 6395 009a 80        		.byte	-128
 6396 009b 6C        		.byte	108
 6397 009c 92        		.byte	-110
 6398 009d 92        		.byte	-110
 6399 009e 92        		.byte	-110
 6400 009f 6C        		.byte	108
 6401 00a0 60        		.byte	96
 6402 00a1 92        		.byte	-110
 6403 00a2 92        		.byte	-110
 6404 00a3 94        		.byte	-108
 6405 00a4 78        		.byte	120
 6406 00a5 00        		.byte	0
 6407 00a6 00        		.byte	0
 6408 00a7 36        		.byte	54
 6409 00a8 36        		.byte	54
 6410 00a9 00        		.byte	0
 6411 00aa 00        		.byte	0
 6412 00ab 00        		.byte	0
 6413 00ac 35        		.byte	53
 6414 00ad 36        		.byte	54
 6415 00ae 00        		.byte	0
 6416 00af 10        		.byte	16
 6417 00b0 28        		.byte	40
 6418 00b1 44        		.byte	68
 6419 00b2 82        		.byte	-126
 6420 00b3 00        		.byte	0
 6421 00b4 28        		.byte	40
 6422 00b5 28        		.byte	40
 6423 00b6 28        		.byte	40
 6424 00b7 28        		.byte	40
 6425 00b8 28        		.byte	40
 6426 00b9 00        		.byte	0
 6427 00ba 82        		.byte	-126
 6428 00bb 44        		.byte	68
 6429 00bc 28        		.byte	40
 6430 00bd 10        		.byte	16
 6431 00be 40        		.byte	64
 6432 00bf 80        		.byte	-128
 6433 00c0 8A        		.byte	-118
 6434 00c1 90        		.byte	-112
 6435 00c2 60        		.byte	96
 6436 00c3 7C        		.byte	124
 6437 00c4 82        		.byte	-126
 6438 00c5 BA        		.byte	-70
 6439 00c6 BA        		.byte	-70
 6440 00c7 62        		.byte	98
 6441 00c8 3E        		.byte	62
 6442 00c9 48        		.byte	72
 6443 00ca 88        		.byte	-120
 6444 00cb 48        		.byte	72
 6445 00cc 3E        		.byte	62
 6446 00cd FE        		.byte	-2
 6447 00ce 92        		.byte	-110
 6448 00cf 92        		.byte	-110
 6449 00d0 92        		.byte	-110
 6450 00d1 6C        		.byte	108
 6451 00d2 7C        		.byte	124
 6452 00d3 82        		.byte	-126
 6453 00d4 82        		.byte	-126
 6454 00d5 82        		.byte	-126
 6455 00d6 44        		.byte	68
 6456 00d7 FE        		.byte	-2
 6457 00d8 82        		.byte	-126
 6458 00d9 82        		.byte	-126
 6459 00da 82        		.byte	-126
 6460 00db 7C        		.byte	124
 6461 00dc FE        		.byte	-2
 6462 00dd 92        		.byte	-110
 6463 00de 92        		.byte	-110
 6464 00df 92        		.byte	-110
 6465 00e0 82        		.byte	-126
 6466 00e1 FE        		.byte	-2
 6467 00e2 90        		.byte	-112
 6468 00e3 90        		.byte	-112
 6469 00e4 90        		.byte	-112
 6470 00e5 80        		.byte	-128
 6471 00e6 7C        		.byte	124
 6472 00e7 82        		.byte	-126
 6473 00e8 82        		.byte	-126
 6474 00e9 8A        		.byte	-118
 6475 00ea 4E        		.byte	78
 6476 00eb FE        		.byte	-2
 6477 00ec 10        		.byte	16
 6478 00ed 10        		.byte	16
 6479 00ee 10        		.byte	16
 6480 00ef FE        		.byte	-2
 6481 00f0 82        		.byte	-126
 6482 00f1 82        		.byte	-126
 6483 00f2 FE        		.byte	-2
 6484 00f3 82        		.byte	-126
 6485 00f4 82        		.byte	-126
 6486 00f5 84        		.byte	-124
 6487 00f6 82        		.byte	-126
 6488 00f7 FC        		.byte	-4
 6489 00f8 80        		.byte	-128
 6490 00f9 80        		.byte	-128
 6491 00fa FE        		.byte	-2
 6492 00fb 10        		.byte	16
 6493 00fc 28        		.byte	40
 6494 00fd 44        		.byte	68
 6495 00fe 82        		.byte	-126
 6496 00ff FE        		.byte	-2
 6497 0100 02        		.byte	2
 6498 0101 02        		.byte	2
 6499 0102 02        		.byte	2
 6500 0103 02        		.byte	2
 6501 0104 FE        		.byte	-2
 6502 0105 40        		.byte	64
 6503 0106 20        		.byte	32
 6504 0107 40        		.byte	64
 6505 0108 FE        		.byte	-2
 6506 0109 FE        		.byte	-2
 6507 010a 60        		.byte	96
 6508 010b 10        		.byte	16
 6509 010c 0C        		.byte	12
 6510 010d FE        		.byte	-2
 6511 010e 7C        		.byte	124
 6512 010f 82        		.byte	-126
 6513 0110 82        		.byte	-126
 6514 0111 82        		.byte	-126
 6515 0112 7C        		.byte	124
 6516 0113 FE        		.byte	-2
 6517 0114 90        		.byte	-112
 6518 0115 90        		.byte	-112
 6519 0116 90        		.byte	-112
 6520 0117 60        		.byte	96
 6521 0118 7C        		.byte	124
 6522 0119 82        		.byte	-126
 6523 011a 82        		.byte	-126
 6524 011b 86        		.byte	-122
 6525 011c 7E        		.byte	126
 6526 011d FE        		.byte	-2
 6527 011e 90        		.byte	-112
 6528 011f 98        		.byte	-104
 6529 0120 94        		.byte	-108
 6530 0121 62        		.byte	98
 6531 0122 64        		.byte	100
 6532 0123 92        		.byte	-110
 6533 0124 92        		.byte	-110
 6534 0125 92        		.byte	-110
 6535 0126 4C        		.byte	76
 6536 0127 80        		.byte	-128
 6537 0128 80        		.byte	-128
 6538 0129 FE        		.byte	-2
 6539 012a 80        		.byte	-128
 6540 012b 80        		.byte	-128
 6541 012c FC        		.byte	-4
 6542 012d 02        		.byte	2
 6543 012e 02        		.byte	2
 6544 012f 02        		.byte	2
 6545 0130 FC        		.byte	-4
 6546 0131 F8        		.byte	-8
 6547 0132 04        		.byte	4
 6548 0133 02        		.byte	2
 6549 0134 04        		.byte	4
 6550 0135 F8        		.byte	-8
 6551 0136 FC        		.byte	-4
 6552 0137 02        		.byte	2
 6553 0138 0C        		.byte	12
 6554 0139 02        		.byte	2
 6555 013a FC        		.byte	-4
 6556 013b C6        		.byte	-58
 6557 013c 28        		.byte	40
 6558 013d 10        		.byte	16
 6559 013e 28        		.byte	40
 6560 013f C6        		.byte	-58
 6561 0140 C0        		.byte	-64
 6562 0141 20        		.byte	32
 6563 0142 1E        		.byte	30
 6564 0143 20        		.byte	32
 6565 0144 C0        		.byte	-64
 6566 0145 86        		.byte	-122
 6567 0146 8A        		.byte	-118
 6568 0147 92        		.byte	-110
 6569 0148 A2        		.byte	-94
 6570 0149 C2        		.byte	-62
 6571 014a 00        		.byte	0
 6572 014b 00        		.byte	0
 6573 014c FE        		.byte	-2
 6574 014d 82        		.byte	-126
 6575 014e 00        		.byte	0
 6576 014f 00        		.byte	0
 6577 0150 00        		.byte	0
 6578 0151 00        		.byte	0
 6579 0152 00        		.byte	0
 6580 0153 00        		.byte	0
 6581 0154 80        		.byte	-128
 6582 0155 60        		.byte	96
 6583 0156 10        		.byte	16
 6584 0157 0C        		.byte	12
 6585 0158 02        		.byte	2
 6586 0159 20        		.byte	32
 6587 015a 40        		.byte	64
 6588 015b 80        		.byte	-128
 6589 015c 40        		.byte	64
 6590 015d 20        		.byte	32
 6591 015e 01        		.byte	1
 6592 015f 01        		.byte	1
 6593 0160 01        		.byte	1
 6594 0161 01        		.byte	1
 6595 0162 01        		.byte	1
 6596 0163 80        		.byte	-128
 6597 0164 40        		.byte	64
 6598 0165 20        		.byte	32
 6599 0166 00        		.byte	0
 6600 0167 00        		.byte	0
 6601 0168 04        		.byte	4
 6602 0169 2A        		.byte	42
 6603 016a 2A        		.byte	42
 6604 016b 2A        		.byte	42
 6605 016c 1E        		.byte	30
 6606 016d FE        		.byte	-2
 6607 016e 12        		.byte	18
 6608 016f 22        		.byte	34
 6609 0170 22        		.byte	34
 6610 0171 1C        		.byte	28
 6611 0172 1C        		.byte	28
 6612 0173 22        		.byte	34
 6613 0174 22        		.byte	34
 6614 0175 22        		.byte	34
 6615 0176 14        		.byte	20
 6616 0177 1C        		.byte	28
 6617 0178 22        		.byte	34
 6618 0179 22        		.byte	34
 6619 017a 12        		.byte	18
 6620 017b FE        		.byte	-2
 6621 017c 1C        		.byte	28
 6622 017d 2A        		.byte	42
 6623 017e 2A        		.byte	42
 6624 017f 2A        		.byte	42
 6625 0180 18        		.byte	24
 6626 0181 10        		.byte	16
 6627 0182 7E        		.byte	126
 6628 0183 90        		.byte	-112
 6629 0184 80        		.byte	-128
 6630 0185 40        		.byte	64
 6631 0186 18        		.byte	24
 6632 0187 25        		.byte	37
 6633 0188 25        		.byte	37
 6634 0189 25        		.byte	37
 6635 018a 1E        		.byte	30
 6636 018b FE        		.byte	-2
 6637 018c 10        		.byte	16
 6638 018d 10        		.byte	16
 6639 018e 10        		.byte	16
 6640 018f 0E        		.byte	14
 6641 0190 00        		.byte	0
 6642 0191 12        		.byte	18
 6643 0192 5E        		.byte	94
 6644 0193 02        		.byte	2
 6645 0194 00        		.byte	0
 6646 0195 02        		.byte	2
 6647 0196 01        		.byte	1
 6648 0197 01        		.byte	1
 6649 0198 11        		.byte	17
 6650 0199 5E        		.byte	94
 6651 019a FE        		.byte	-2
 6652 019b 08        		.byte	8
 6653 019c 08        		.byte	8
 6654 019d 14        		.byte	20
 6655 019e 22        		.byte	34
 6656 019f 00        		.byte	0
 6657 01a0 82        		.byte	-126
 6658 01a1 FE        		.byte	-2
 6659 01a2 02        		.byte	2
 6660 01a3 00        		.byte	0
 6661 01a4 3E        		.byte	62
 6662 01a5 20        		.byte	32
 6663 01a6 1C        		.byte	28
 6664 01a7 20        		.byte	32
 6665 01a8 1E        		.byte	30
 6666 01a9 3E        		.byte	62
 6667 01aa 20        		.byte	32
 6668 01ab 20        		.byte	32
 6669 01ac 20        		.byte	32
 6670 01ad 1E        		.byte	30
 6671 01ae 1C        		.byte	28
 6672 01af 22        		.byte	34
 6673 01b0 22        		.byte	34
 6674 01b1 22        		.byte	34
 6675 01b2 1C        		.byte	28
 6676 01b3 3F        		.byte	63
 6677 01b4 24        		.byte	36
 6678 01b5 24        		.byte	36
 6679 01b6 24        		.byte	36
 6680 01b7 18        		.byte	24
 6681 01b8 18        		.byte	24
 6682 01b9 24        		.byte	36
 6683 01ba 24        		.byte	36
 6684 01bb 3F        		.byte	63
 6685 01bc 01        		.byte	1
 6686 01bd 3E        		.byte	62
 6687 01be 10        		.byte	16
 6688 01bf 20        		.byte	32
 6689 01c0 20        		.byte	32
 6690 01c1 10        		.byte	16
 6691 01c2 12        		.byte	18
 6692 01c3 2A        		.byte	42
 6693 01c4 2A        		.byte	42
 6694 01c5 2A        		.byte	42
 6695 01c6 04        		.byte	4
 6696 01c7 00        		.byte	0
 6697 01c8 10        		.byte	16
 6698 01c9 3C        		.byte	60
 6699 01ca 12        		.byte	18
 6700 01cb 04        		.byte	4
 6701 01cc 3C        		.byte	60
 6702 01cd 02        		.byte	2
 6703 01ce 02        		.byte	2
 6704 01cf 02        		.byte	2
 6705 01d0 3E        		.byte	62
 6706 01d1 30        		.byte	48
 6707 01d2 0C        		.byte	12
 6708 01d3 02        		.byte	2
 6709 01d4 0C        		.byte	12
 6710 01d5 30        		.byte	48
 6711 01d6 38        		.byte	56
 6712 01d7 06        		.byte	6
 6713 01d8 18        		.byte	24
 6714 01d9 06        		.byte	6
 6715 01da 38        		.byte	56
 6716 01db 22        		.byte	34
 6717 01dc 14        		.byte	20
 6718 01dd 08        		.byte	8
 6719 01de 14        		.byte	20
 6720 01df 22        		.byte	34
 6721 01e0 38        		.byte	56
 6722 01e1 05        		.byte	5
 6723 01e2 05        		.byte	5
 6724 01e3 05        		.byte	5
 6725 01e4 3E        		.byte	62
 6726 01e5 22        		.byte	34
 6727 01e6 26        		.byte	38
 6728 01e7 2A        		.byte	42
 6729 01e8 32        		.byte	50
 6730 01e9 22        		.byte	34
 6731 01ea 00        		.byte	0
 6732 01eb 10        		.byte	16
 6733 01ec 6C        		.byte	108
 6734 01ed 82        		.byte	-126
 6735 01ee 82        		.byte	-126
 6736 01ef 04        		.byte	4
 6737 01f0 02        		.byte	2
 6738 01f1 FF        		.byte	-1
 6739 01f2 02        		.byte	2
 6740 01f3 04        		.byte	4
 6741 01f4 82        		.byte	-126
 6742 01f5 82        		.byte	-126
 6743 01f6 6C        		.byte	108
 6744 01f7 10        		.byte	16
 6745 01f8 00        		.byte	0
 6746 01f9 08        		.byte	8
 6747 01fa 10        		.byte	16
 6748 01fb 18        		.byte	24
 6749 01fc 08        		.byte	8
 6750 01fd 10        		.byte	16
 6751               		.comm RX_array,416,1
 7024               	.Letext0:
DEFINED SYMBOLS
                            *ABS*:00000000 main.c
C:\DOCUME~1\Dokter\LOCALS~1\Temp/ccu9tndl.s:2      *ABS*:0000003f __SREG__
C:\DOCUME~1\Dokter\LOCALS~1\Temp/ccu9tndl.s:3      *ABS*:0000003e __SP_H__
C:\DOCUME~1\Dokter\LOCALS~1\Temp/ccu9tndl.s:4      *ABS*:0000003d __SP_L__
C:\DOCUME~1\Dokter\LOCALS~1\Temp/ccu9tndl.s:5      *ABS*:00000034 __CCP__
C:\DOCUME~1\Dokter\LOCALS~1\Temp/ccu9tndl.s:6      *ABS*:00000000 __tmp_reg__
C:\DOCUME~1\Dokter\LOCALS~1\Temp/ccu9tndl.s:7      *ABS*:00000001 __zero_reg__
C:\DOCUME~1\Dokter\LOCALS~1\Temp/ccu9tndl.s:18     .text:00000000 __vector_18
C:\DOCUME~1\Dokter\LOCALS~1\Temp/ccu9tndl.s:6214   .bss:00000004 RX_in
                            *COM*:000001a0 RX_array
C:\DOCUME~1\Dokter\LOCALS~1\Temp/ccu9tndl.s:83     .text:00000066 __vector_14
C:\DOCUME~1\Dokter\LOCALS~1\Temp/ccu9tndl.s:6226   .data:00000003 BL_dutycycle
C:\DOCUME~1\Dokter\LOCALS~1\Temp/ccu9tndl.s:140    .text:000000b0 ioinit
C:\DOCUME~1\Dokter\LOCALS~1\Temp/ccu9tndl.s:6208   .bss:00000003 display
C:\DOCUME~1\Dokter\LOCALS~1\Temp/ccu9tndl.s:194    .text:000000ec delay_us
C:\DOCUME~1\Dokter\LOCALS~1\Temp/ccu9tndl.s:235    .text:00000112 delay_ms
C:\DOCUME~1\Dokter\LOCALS~1\Temp/ccu9tndl.s:276    .text:0000013e USART_Init
C:\DOCUME~1\Dokter\LOCALS~1\Temp/ccu9tndl.s:310    .text:0000015c put_char
C:\DOCUME~1\Dokter\LOCALS~1\Temp/ccu9tndl.s:332    .text:0000016c delay
C:\DOCUME~1\Dokter\LOCALS~1\Temp/ccu9tndl.s:358    .text:00000178 set_data
C:\DOCUME~1\Dokter\LOCALS~1\Temp/ccu9tndl.s:391    .text:00000198 set_x
C:\DOCUME~1\Dokter\LOCALS~1\Temp/ccu9tndl.s:523    .text:00000200 set_page
C:\DOCUME~1\Dokter\LOCALS~1\Temp/ccu9tndl.s:642    .text:0000025a write_byte
C:\DOCUME~1\Dokter\LOCALS~1\Temp/ccu9tndl.s:783    .text:000002c8 display_on
C:\DOCUME~1\Dokter\LOCALS~1\Temp/ccu9tndl.s:862    .text:00000306 read_byte
C:\DOCUME~1\Dokter\LOCALS~1\Temp/ccu9tndl.s:1251   .text:00000426 rnd
C:\DOCUME~1\Dokter\LOCALS~1\Temp/ccu9tndl.s:1310   .text:00000478 EEPROM_write
C:\DOCUME~1\Dokter\LOCALS~1\Temp/ccu9tndl.s:1336   .text:00000488 EEPROM_read
C:\DOCUME~1\Dokter\LOCALS~1\Temp/ccu9tndl.s:1361   .text:00000496 set_backlight
C:\DOCUME~1\Dokter\LOCALS~1\Temp/ccu9tndl.s:1416   .text:000004d4 set_baud
C:\DOCUME~1\Dokter\LOCALS~1\Temp/ccu9tndl.s:1565   .text:0000056a read
C:\DOCUME~1\Dokter\LOCALS~1\Temp/ccu9tndl.s:1623   .text:000005aa write
C:\DOCUME~1\Dokter\LOCALS~1\Temp/ccu9tndl.s:1707   .text:0000060c pixel
C:\DOCUME~1\Dokter\LOCALS~1\Temp/ccu9tndl.s:6202   .bss:00000002 reverse
C:\DOCUME~1\Dokter\LOCALS~1\Temp/ccu9tndl.s:6270   .bss:0000000d temp_side.1839
C:\DOCUME~1\Dokter\LOCALS~1\Temp/ccu9tndl.s:6269   .bss:0000000c temp_x.1840
C:\DOCUME~1\Dokter\LOCALS~1\Temp/ccu9tndl.s:6271   .bss:0000000e temp_page.1838
C:\DOCUME~1\Dokter\LOCALS~1\Temp/ccu9tndl.s:6268   .bss:0000000b temp_data1.1841
C:\DOCUME~1\Dokter\LOCALS~1\Temp/ccu9tndl.s:6234   .bss:0000000a temp_data2.1842
C:\DOCUME~1\Dokter\LOCALS~1\Temp/ccu9tndl.s:1981   .text:000007c6 erase_block
                             .bss:00000008 temp_y.2242
C:\DOCUME~1\Dokter\LOCALS~1\Temp/ccu9tndl.s:6233   .bss:00000009 temp_x.2241
C:\DOCUME~1\Dokter\LOCALS~1\Temp/ccu9tndl.s:2055   .text:0000081a del_char
C:\DOCUME~1\Dokter\LOCALS~1\Temp/ccu9tndl.s:6171   .bss:00000000 x_offset
C:\DOCUME~1\Dokter\LOCALS~1\Temp/ccu9tndl.s:6177   .data:00000000 y_offset
C:\DOCUME~1\Dokter\LOCALS~1\Temp/ccu9tndl.s:2196   .text:000008fc line
C:\DOCUME~1\Dokter\LOCALS~1\Temp/ccu9tndl.s:2720   .text:00000c4a box
C:\DOCUME~1\Dokter\LOCALS~1\Temp/ccu9tndl.s:2782   .text:00000c9e print_char
C:\DOCUME~1\Dokter\LOCALS~1\Temp/ccu9tndl.s:6275   .data:00000023 text_array
C:\DOCUME~1\Dokter\LOCALS~1\Temp/ccu9tndl.s:2922   .text:00000d78 clear_screen
C:\DOCUME~1\Dokter\LOCALS~1\Temp/ccu9tndl.s:3489   .text:00000fa8 display_init
C:\DOCUME~1\Dokter\LOCALS~1\Temp/ccu9tndl.s:3605   .text:0000106a circle
C:\DOCUME~1\Dokter\LOCALS~1\Temp/ccu9tndl.s:3848   .text:000011f0 demo
C:\DOCUME~1\Dokter\LOCALS~1\Temp/ccu9tndl.s:6237   .data:00000005 logo
C:\DOCUME~1\Dokter\LOCALS~1\Temp/ccu9tndl.s:4633   .text:0000170c main
C:\DOCUME~1\Dokter\LOCALS~1\Temp/ccu9tndl.s:6195   .data:00000002 baud_rate
C:\DOCUME~1\Dokter\LOCALS~1\Temp/ccu9tndl.s:6231   .data:00000004 splash_screen
C:\DOCUME~1\Dokter\LOCALS~1\Temp/ccu9tndl.s:6220   .bss:00000006 RX_read
C:\DOCUME~1\Dokter\LOCALS~1\Temp/ccu9tndl.s:6182   .data:00000001 side_mark
C:\DOCUME~1\Dokter\LOCALS~1\Temp/ccu9tndl.s:6189   .bss:00000001 page_mark

UNDEFINED SYMBOLS
__fixsfsi
__floatsisf
__subsf3
__gesf2
__divsf3
__mulsf3
__addsf3
__fixunssfsi
sqrt
rprintf_devopen
__do_copy_data
__do_clear_bss
